
build/main.elf:     file format elf32-littleriscv

Contents of section .text.init:
 0000 17010100 13010100 ef00c01a 6f000000  ............o...
Contents of section .text:
 0010 97110000 9381419a 17250000 1305c54d  ......A..%.....M
 0020 17260000 1306064f 3306a640 93050000  .&.....O3..@....
 0030 ef00800a 17150000 130585bb 63080500  ............c...
 0040 17250000 130585c9 ef00503a ef00501c  .%........P:..P.
 0050 03250100 93054100 13060000 ef008015  .%....A.........
 0060 6f00c017 130101ff 23248100 37240000  o.......#$..7$..
 0070 8347444f 23261100 63920702 93070000  .GDO#&..c.......
 0080 638a0700 37250000 1305854d 97000000  c...7%.....M....
 0090 e7000000 93071000 230af44e 8320c100  ........#..N. ..
 00a0 03248100 13010101 67800000 93070000  .$......g.......
 00b0 638e0700 b7250000 37250000 9385854f  c....%..7%.....O
 00c0 1305854d 17030000 67000000 67800000  ...M....g...g...
 00d0 13451500 67800000 1303f000 13070500  .E..g...........
 00e0 637ec302 9377f700 6390070a 63920508  c~...w..c...c...
 00f0 937606ff 1376f600 b386e600 2320b700  .v...v......# ..
 0100 2322b700 2324b700 2326b700 13070701  #"..#$..#&......
 0110 e366d7fe 63140600 67800000 b306c340  .f..c...g......@
 0120 93962600 97020000 b3865600 6780c600  ..&.......V.g...
 0130 2307b700 a306b700 2306b700 a305b700  #.......#.......
 0140 2305b700 a304b700 2304b700 a303b700  #.......#.......
 0150 2303b700 a302b700 2302b700 a301b700  #.......#.......
 0160 2301b700 a300b700 2300b700 67800000  #.......#...g...
 0170 93f5f50f 93968500 b3e5d500 93960501  ................
 0180 b3e5d500 6ff0dff6 93962700 97020000  ....o.....'.....
 0190 b3865600 93820000 e78006fa 93800200  ..V.............
 01a0 938707ff 3307f740 3306f600 e378c3f6  ....3..@3....x..
 01b0 6ff0dff3                             o...            
Contents of section .text.startup:
 01b4 13071000 37260000 8326464d 13471700  ....7&...&FM.G..
 01c4 93074006 23a0e600 13000000 9387f7ff  ..@.#...........
 01d4 e39c07fe 6ff05ffe                    ....o._.        
Contents of section .text.exit:
 01dc 130101ff 93050000 23248100 23261100  ........#$..#&..
 01ec 13040500 ef00500c b7270000 83a78764  ......P..'.....d
 01fc 63840700 e7800700 13050400 ef109040  c..............@
Contents of section .text.__fp_lock:
 020c 13050000 67800000                    ....g...        
Contents of section .text.stdio_exit_handler:
 0214 37260000 b7250000 37250000 130686f9  7&...%..7%......
 0224 9385c582 130585fa 6f008035           ........o..5    
Contents of section .text.cleanup_stdio:
 0230 83254500 130101ff b7270000 23248100  .%E......'..#$..
 0240 23261100 93870751 13040500 6384f500  #&.....Q....c...
 0250 ef10c05d 83258400 b7270000 93878757  ...].%...'.....W
 0260 6386f500 13050400 ef10405c 8325c400  c.........@\.%..
 0270 b7270000 9387075e 638cf500 13050400  .'.....^c.......
 0280 03248100 8320c100 13010101 6f10005a  .$... ......o..Z
 0290 8320c100 03248100 13010101 67800000  . ...$......g...
Contents of section .text.__fp_unlock:
 02a0 13050000 67800000                    ....g...        
Contents of section .text.global_stdio_init.part.0:
 02a8 130101fe 232c8100 37270000 93074021  ....#,..7'....@!
 02b8 37240000 37250000 13040451 232e1100  7$..7%.....Q#...
 02c8 232a9100 23282101 23263101 23244101  #*..#(!.#&1.#$A.
 02d8 2324f764 13068000 93074000 93050000  #$.d......@.....
 02e8 1305c556 2326f400 23200400 23220400  ...V#&..# ..#"..
 02f8 23240400 23220406 23280400 232a0400  #$..#"..#(..#*..
 0308 232c0400 eff0dfdc b7070100 37250000  #,..........7%..
 0318 130a8063 9309c069 13094072 9304c079  ...c...i..@r...y
 0328 93879700 13068000 93050000 1305455d  ..............E]
 0338 23204403 23223403 23242403 23269402  # D.#"4.#$$.#&..
 0348 232af406 232e8400 23240406 23260406  #*..#...#$..#&..
 0358 23280406 2326040c 232c0406 232e0406  #(..#&..#,..#...
 0368 23200408 eff0dfd6 b7070200 37250000  # ..........7%..
 0378 37270000 93872701 13078757 13068000  7'....'....W....
 0388 93050000 1305c563 23244409 23263409  .......c#$D.#&4.
 0398 23282409 232a9408 232ef40c 2322e408  #($.#*..#...#"..
 03a8 2328040c 232a040c 232c040c 232a0412  #(..#*..#,..#*..
 03b8 2320040e 2322040e 2324040e eff05fd1  # ..#"..#$...._.
 03c8 b7270000 9387075e 2328440f 232a340f  .'.....^#(D.#*4.
 03d8 232c240f 232e940e 8320c101 2326f40e  #,$.#.... ..#&..
 03e8 03248101 83244101 03290101 8329c100  .$...$A..)...)..
 03f8 032a8100 13010102 67800000           .*......g...    
Contents of section .text.__sfp:
 0404 b7270000 83a78764 130101fe 23263101  .'.....d....#&1.
 0414 232e1100 232c8100 232a9100 23282101  #...#,..#*..#(!.
 0424 93090500 6388070e 37290000 130989f9  ....c...7)......
 0434 9304f0ff 83274900 03248900 9387f7ff  .....'I..$......
 0444 63d80700 6f000008 13048406 638c9706  c...o.......c...
 0454 0317c400 9387f7ff e31807fe b707ffff  ................
 0464 93871700 2326f400 23220406 23200400  ....#&..#"..# ..
 0474 23240400 23220400 23280400 232a0400  #$..#"..#(..#*..
 0484 232c0400 13068000 93050000 1305c405  #,..............
 0494 eff05fc4 23280402 232a0402 23220404  .._.#(..#*..#"..
 04a4 23240404 8320c101 13050400 03248101  #$... .......$..
 04b4 83244101 03290101 8329c100 13010102  .$A..)...)......
 04c4 67800000 03240900 63060400 13090400  g....$..c.......
 04d4 6ff05ff6 9305c01a 13850900 ef001037  o._............7
 04e4 13040500 630c0502 1305c500 93074000  ....c.........@.
 04f4 23200400 2322f400 2324a400 1306001a  # ..#"..#$......
 0504 93050000 eff01fbd 23208900 13090400  ........# ......
 0514 6ff05ff2 eff01fd9 6ff01ff1 23200900  o._.....o...# ..
 0524 9307c000 23a0f900 6ff0dff7           ....#...o...    
Contents of section .text.__sinit:
 0530 83274503 63840700 67800000 b7270000  .'E.c...g....'..
 0540 03a78764 93070023 232af502 e31607fe  ...d...##*......
 0550 6ff09fd5                             o...            
Contents of section .text.__sfp_lock_acquire:
 0554 67800000                             g...            
Contents of section .text.__sfp_lock_release:
 0558 67800000                             g...            
Contents of section .text.__fp_lock_all:
 055c 37260000 130686f9 9305c020 13050000  7&......... ....
 056c 6f008001                             o...            
Contents of section .text.__fp_unlock_all:
 0570 37260000 130686f9 9305002a 13050000  7&.........*....
 0580 6f004000                             o.@.            
Contents of section .text._fwalk_sglue:
 0584 130101fd 23202103 232e3101 232c4101  ....# !.#.1.#,A.
 0594 232a5101 23286101 23267101 23261102  #*Q.#(a.#&q.#&..
 05a4 23248102 23229102 130b0500 938b0500  #$..#"..........
 05b4 930a0600 130a0000 93091000 1309f0ff  ................
 05c4 83a44a00 03a48a00 9384f4ff 63c80402  ..J.........c...
 05d4 8357c400 63fef900 8317e400 93050400  .W..c...........
 05e4 13050b00 63862701 e7800b00 336aaa00  ....c.'.....3j..
 05f4 9384f4ff 13048406 e39c24fd 83aa0a00  ..........$.....
 0604 e3900afc 8320c102 03248102 83244102  ..... ...$...$A.
 0614 03290102 8329c101 832a4101 032b0101  .)...)...*A..+..
 0624 832bc100 13050a00 032a8101 13010103  .+.......*......
 0634 67800000                             g...            
Contents of section .text.__sread:
 0638 130101ff 23248100 13840500 8395e500  ....#$..........
 0648 23261100 ef00c02e 63400502 83270405  #&......c@...'..
 0658 8320c100 b387a700 2328f404 03248100  . ......#(...$..
 0668 13010101 67800000 8357c400 37f7ffff  ....g....W..7...
 0678 1307f7ff b3f7e700 8320c100 2316f400  ......... ..#...
 0688 03248100 13010101 67800000           .$......g...    
Contents of section .text.__seofread:
 0694 13050000 67800000                    ....g...        
Contents of section .text.__swrite:
 069c 8397c500 130101fe 232c8100 232a9100  ........#,..#*..
 06ac 23282101 23263101 232e1100 13f70710  #(!.#&1.#.......
 06bc 13840500 93040500 13090600 93890600  ................
 06cc 63100704 37f7ffff 1307f7ff b3f7e700  c...7...........
 06dc 8315e400 2316f400 03248101 8320c101  ....#....$... ..
 06ec 93860900 13060900 8329c100 03290101  .........)...)..
 06fc 13850400 83244101 13010102 6f00c029  .....$A.....o..)
 070c 8395e500 93062000 13060000 ef00401b  ...... .......@.
 071c 8317c400 6ff01ffb                    ....o...        
Contents of section .text.__sseek:
 0724 130101ff 23248100 13840500 8395e500  ....#$..........
 0734 23261100 ef004019 9307f0ff 6308f502  #&....@.....c...
 0744 8357c400 37170000 8320c100 b3e7e700  .W..7.... ......
 0754 93970701 93d70741 2328a404 2316f400  .......A#(..#...
 0764 03248100 13010101 67800000 8357c400  .$......g....W..
 0774 37f7ffff 1307f7ff b3f7e700 93970701  7...............
 0784 93d70741 8320c100 2316f400 03248100  ...A. ..#....$..
 0794 13010101 67800000                    ....g...        
Contents of section .text.__sclose:
 079c 8395e500 6f004000                    ....o.@.        
Contents of section .text._close_r:
 07a4 130101ff 23248100 23229100 13040500  ....#$..#"......
 07b4 b7240000 13850500 23261100 23a60464  .$......#&..#..d
 07c4 ef108060 9307f0ff 630cf500 8320c100  ...`....c.... ..
 07d4 03248100 83244100 13010101 67800000  .$...$A.....g...
 07e4 83a7c464 e38407fe 8320c100 2320f400  ...d..... ..# ..
 07f4 03248100 83244100 13010101 67800000  .$...$A.....g...
Contents of section .text._reclaim_reent:
 0804 b7270000 83a7474e 638ea70a 83254504  .'....GNc....%E.
 0814 130101fe 232a9100 232e1100 93040500  ....#*..#.......
 0824 638c0504 23282101 23263101 232c8100  c...#(!.#&1.#,..
 0834 13090000 93090008 b3872501 03a40700  ..........%.....
 0844 630e0400 93050400 03240400 13850400  c........$......
 0854 ef00004f e31804fe 83a54404 13094900  ...O......D...I.
 0864 e31c39fd 13850400 ef00804d 03248101  ..9........M.$..
 0874 03290101 8329c100 83a58403 63860500  .)...)......c...
 0884 13850400 ef00c04b 83a5c404 63860500  .......K....c...
 0894 13850400 ef00c04a 83a74403 638c0700  .......J..D.c...
 08a4 8320c101 13850400 83244101 13010102  . .......$A.....
 08b4 67800700 8320c101 83244101 13010102  g.... ...$A.....
 08c4 67800000 67800000                    g...g...        
Contents of section .text._lseek_r:
 08cc 130101ff 13870500 23248100 23229100  ........#$..#"..
 08dc 93050600 13040500 b7240000 13860600  .........$......
 08ec 13050700 23261100 23a60464 ef108054  ....#&..#..d...T
 08fc 9307f0ff 630cf500 8320c100 03248100  ....c.... ...$..
 090c 83244100 13010101 67800000 83a7c464  .$A.....g......d
 091c e38407fe 8320c100 2320f400 03248100  ..... ..# ...$..
 092c 83244100 13010101 67800000           .$A.....g...    
Contents of section .text._read_r:
 0938 130101ff 13870500 23248100 23229100  ........#$..#"..
 0948 93050600 13040500 b7240000 13860600  .........$......
 0958 13050700 23261100 23a60464 ef100052  ....#&..#..d...R
 0968 9307f0ff 630cf500 8320c100 03248100  ....c.... ...$..
 0978 83244100 13010101 67800000 83a7c464  .$A.....g......d
 0988 e38407fe 8320c100 2320f400 03248100  ..... ..# ...$..
 0998 83244100 13010101 67800000           .$A.....g...    
Contents of section .text._write_r:
 09a4 130101ff 13870500 23248100 23229100  ........#$..#"..
 09b4 93050600 13040500 b7240000 13860600  .........$......
 09c4 13050700 23261100 23a60464 ef104057  ....#&..#..d..@W
 09d4 9307f0ff 630cf500 8320c100 03248100  ....c.... ...$..
 09e4 83244100 13010101 67800000 83a7c464  .$A.....g......d
 09f4 e38407fe 8320c100 2320f400 03248100  ..... ..# ...$..
 0a04 83244100 13010101 67800000           .$A.....g...    
Contents of section .text.__libc_init_array:
 0a10 130101ff 23248100 23202101 93070000  ....#$..# !.....
 0a20 13070000 23261100 23229100 3389e740  ....#&..#"..3..@
 0a30 6382e702 13592940 13040000 93040000  c....Y)@........
 0a40 83270400 93841400 13044400 e7800700  .'........D.....
 0a50 e3e824ff 93070000 13070000 3389e740  ..$.........3..@
 0a60 13592940 6380e702 13040000 93040000  .Y)@c...........
 0a70 83270400 93841400 13044400 e7800700  .'........D.....
 0a80 e3e824ff 8320c100 03248100 83244100  ..$.. ...$...$A.
 0a90 03290100 13010101 67800000           .)......g...    
Contents of section .text.startup.register_fini:
 0a9c 93070000 63880700 37250000 130585cd  ....c...7%......
 0aac 6f000014 67800000                    o...g...        
Contents of section .text.__call_exitprocs:
 0ab4 130101fd 232c4101 372a0000 23202103  ....#,A.7*..# !.
 0ac4 03290a65 23261102 6308090a 232e3101  .).e#&..c...#.1.
 0ad4 232a5101 23286101 23267101 23248102  #*Q.#(a.#&q.#$..
 0ae4 23229102 23248101 130b0500 938b0500  #"..#$..........
 0af4 9309f0ff 930a1000 83244900 1384f4ff  .........$I.....
 0b04 634e0404 93942400 b3049900 63900b08  cN....$.....c...
 0b14 83274900 83a64400 9387f7ff 638c870a  .'I...D.....c...
 0b24 23a20400 63860602 83278918 33978a00  #...c....'..3...
 0b34 032c4900 b377f700 63960706 e7800600  .,I..w..c.......
 0b44 03274900 83270a65 63108709 639e2707  .'I..'.ec...c.'.
 0b54 1304f4ff 9384c4ff e31a34fb 03248102  ..........4..$..
 0b64 83244102 8329c101 832a4101 032b0101  .$A..)...*A..+..
 0b74 832bc100 032c8100 8320c102 03290102  .+...,... ...)..
 0b84 032a8101 13010103 67800000 83a74410  .*......g.....D.
 0b94 e38077f9 1304f4ff 9384c4ff e31834ff  ..w...........4.
 0ba4 6ff0dffb 8327c918 83a54408 3377f700  o....'....D.3w..
 0bb4 63160702 13050b00 e7800600 03274900  c............'I.
 0bc4 83270a65 e30487f9 e38a07f8 13890700  .'.e............
 0bd4 6ff09ff2 23228900 6ff0dff4 13850500  o...#"..o.......
 0be4 e7800600 6ff0dff5                    ....o...        
Contents of section .text.atexit:
 0bec 93050500 93060000 13060000 13050000  ................
 0bfc 6f100013                             o...            
Contents of section .text._malloc_trim_r:
 0c00 130101fe 23263101 b7290000 232c8100  ....#&1..)..#,..
 0c10 232a9100 23282101 23244101 232e1100  #*..#(!.#$A.#...
 0c20 138a0500 13090500 9389890c ef00903f  ...............?
 0c30 03a78900 b7170000 9387f7fe 83244700  .............$G.
 0c40 37170000 93f4c4ff 3384f400 33044441  7.......3...3.DA
 0c50 1354c400 1304f4ff 1314c400 634ee400  .T..........cN..
 0c60 93050000 13050900 ef100001 83a78900  ................
 0c70 b3879700 6308f502 13050900 ef00d03a  ....c..........:
 0c80 8320c101 03248101 83244101 03290101  . ...$...$A..)..
 0c90 8329c100 032a8100 13050000 13010102  .)...*..........
 0ca0 67800000 b3058040 13050900 ef00d07c  g......@.......|
 0cb0 9307f0ff 630af504 b7270000 93874765  ....c....'....Ge
 0cc0 03a70700 83a68900 b3848440 93e41400  ...........@....
 0cd0 33078740 13050900 23a29600 23a0e700  3..@....#...#...
 0ce0 ef009034 8320c101 03248101 83244101  ...4. ...$...$A.
 0cf0 03290101 8329c100 032a8100 13051000  .)...)...*......
 0d00 13010102 67800000 93050000 13050900  ....g...........
 0d10 ef009076 03a78900 9306f000 b307e540  ...v...........@
 0d20 e3dcf6f4 b7260000 83a6c64e 93e71700  .....&.....N....
 0d30 2322f700 3305d540 b7260000 23aaa664  #"..3..@.&..#..d
 0d40 6ff09ff3                             o...            
Contents of section .text._free_r:
 0d44 63820518 130101ff 23248100 23229100  c.......#$..#"..
 0d54 13840500 93040500 23261100 ef00502c  ........#&....P,
 0d64 0325c4ff 130784ff b7250000 9377e5ff  .%.......%...w..
 0d74 3306f700 9385850c 83264600 03a88500  3........&F.....
 0d84 93f6c6ff 6302c81a 2322d600 13751500  ....c...#"...u..
 0d94 3308d600 6310050a 032384ff 03284800  3...c....#...(H.
 0da4 37250000 33076740 83288700 1305050d  7%..3.g@.(......
 0db4 b3876700 13781800 6382a814 0323c700  ..g..x..c....#..
 0dc4 23a66800 23241301 630a081a 93e61700  #.h.#$..c.......
 0dd4 2322d700 2320f600 9306f01f 63ecf606  #"..# ......c...
 0de4 93f687ff 93868600 03a54500 b386d500  ..........E.....
 0df4 03a60600 13d85700 93071000 b3970701  ......W.........
 0e04 b3e7a700 138586ff 2326a700 2324c700  ........#&..#$..
 0e14 23a2f500 23a0e600 2326e600 03248100  #...#...#&...$..
 0e24 8320c100 13850400 83244100 13010101  . .......$A.....
 0e34 6f00501f 03254800 13751500 63060508  o.P..%H..u..c...
 0e44 93e61700 232ed4fe 2320f600 9306f01f  ....#...# ......
 0e54 e3f8f6f8 93d69700 13064000 6364d612  ..........@.cd..
 0e64 93d66700 13859603 13868603 13153500  ..g...........5.
 0e74 3385a500 83260500 130585ff 6318d500  3....&......c...
 0e84 6f00c015 83a68600 6308d500 03a64600  o.......c.....F.
 0e94 1376c6ff e3e8c7fe 03a5c600 2326a700  .v..........#&..
 0ea4 2324d700 03248100 2324e500 8320c100  #$...$..#$... ..
 0eb4 13850400 83244100 23a6e600 13010101  .....$A.#.......
 0ec4 6f005016 67800000 37250000 b387d700  o.P.g...7%......
 0ed4 1305050d 83268600 6380a60e 0328c600  .....&..c....(..
 0ee4 13e51700 3306f700 23a60601 2324d800  ....3...#...#$..
 0ef4 2322a700 2320f600 6ff01fee 63100814  #"..# ..o...c...
 0f04 83258600 0326c600 b386f600 93e71600  .%...&..........
 0f14 23a6c500 2324b600 2322f700 3307d700  #...#$..#"..3...
 0f24 2320d700 6ff09fef 13751500 b386d700  # ..o....u......
 0f34 63100502 032584ff 3307a740 8327c700  c....%..3..@.'..
 0f44 03268700 b386a600 2326f600 23a4c700  .&......#&..#...
 0f54 b7270000 13e61600 83a7074f 2322c700  .'.........O#"..
 0f64 23a4e500 e3ecf6ea b7270000 83a54768  #........'....Gh
 0f74 13850400 eff09fc8 6ff05fea b387d700  ........o._.....
 0f84 6ff05ff5 13064001 6370d602 13064005  o._...@.cp....@.
 0f94 6364d606 93d6c700 1385f606 1386e606  cd..............
 0fa4 13153500 6ff0dfec 1385c605 1386b605  ..5.o...........
 0fb4 13153500 6ff0dfeb 23aae500 23a8e500  ..5.o...#...#...
 0fc4 93e61700 2326a700 2324a700 2322d700  ....#&..#$..#"..
 0fd4 3307f700 2320f700 6ff05fe4 03a84500  3...# ..o._...E.
 0fe4 13562640 93071000 b397c700 b3e70701  .V&@............
 0ff4 23a2f500 6ff09fea 13064015 636cd600  #...o.....@.cl..
 1004 93d6f700 13858607 13867607 13153500  ..........v...5.
 1014 6ff01fe6 13064055 636cd600 93d62701  o.....@Ucl....'.
 1024 1385d607 1386c607 13153500 6ff05fe4  ..........5.o._.
 1034 1305803f 1306e007 6ff09fe3 93e61700  ...?....o.......
 1044 2322d700 2320f600 6ff05fdd           #"..# ..o._.    
Contents of section .text._malloc_r:
 1050 130101fd 232e3101 23261102 23248102  ....#.1.#&..#$..
 1060 23229102 23202103 9387b500 13076001  #"..# !.......`.
 1070 93090500 6362f708 93070001 63e6b720  ....cb......c.. 
 1080 ef00407a 93078001 93052000 93040001  ..@z...... .....
 1090 37290000 1309890c b307f900 03a44700  7)............G.
 10a0 138787ff 630ee434 83274400 8326c400  ....c..4.'D..&..
 10b0 03268400 93f7c7ff b307f400 03a74700  .&............G.
 10c0 2326d600 23a4c600 13671700 13850900  #&..#....g......
 10d0 23a2e700 ef004075 13058400 8320c102  #.....@u..... ..
 10e0 03248102 83244102 03290102 8329c101  .$...$A..)...)..
 10f0 13010103 67800000 93f487ff 63c60718  ....g.......c...
 1100 63e4b418 ef000072 9307701f 63f49740  c......r..p.c..@
 1110 93d79400 63820718 13074000 636af734  ....c.....@.cj.4
 1120 93d76400 93859703 13888703 13963500  ..d...........5.
 1130 37290000 1309890c 3306c900 03244600  7)......3....$F.
 1140 130686ff 63088602 1305f000 6f004001  ....c.......o.@.
 1150 8326c400 6352072a 630ed600 13840600  .&..cR.*c.......
 1160 83274400 93f7c7ff 33879740 e352e5fe  .'D.....3..@.R..
 1170 93050800 03240901 37280000 1308080d  .....$..7(......
 1180 63080427 83274400 9306f000 93f7c7ff  c..'.'D.........
 1190 33879740 63c6e638 232a0901 23280901  3..@c..8#*..#(..
 11a0 635a0734 1307f01f 03254900 6362f726  cZ.4.....%I.cb.&
 11b0 13f787ff 13078700 3307e900 83260700  ........3....&..
 11c0 13d65700 93071000 b397c700 3365f500  ..W.........3e..
 11d0 930787ff 2326f400 2324d400 2322a900  ....#&..#$..#"..
 11e0 23208700 23a68600 93d72540 13061000  # ..#.....%@....
 11f0 3316f600 636ac50a b377a600 63940702  3...cj...w..c...
 1200 13161600 93f5c5ff b377a600 93854500  .........w....E.
 1210 639a0700 13161600 b377a600 93854500  c........w....E.
 1220 e38a07fe 9308f000 13933500 33036900  ..........5.3.i.
 1230 13050300 8327c500 138e0500 630cf524  .....'......c..$
 1240 03a74700 13840700 83a7c700 1377c7ff  ..G..........w..
 1250 b3069740 63ccd824 e3c206fe 3307e400  ...@c..$....3...
 1260 83264700 03268400 13850900 93e61600  .&G..&..........
 1270 2322d700 2326f600 23a4c700 ef00c05a  #"..#&..#......Z
 1280 13058400 6ff09fe5 9307c000 23a0f900  ....o.......#...
 1290 13050000 6ff09fe4 13060020 93050004  ....o...... ....
 12a0 1308f003 6ff0dfe8 03248900 23286101  ....o....$..#(a.
 12b0 83274400 13fbc7ff 63689b00 33079b40  .'D.....ch..3..@
 12c0 9307f000 63c4e70e b7270000 23229101  ....c....'..#"..
 12d0 b72c0000 232a5101 03a7cc4e 83aa4768  .,..#*Q....N..Gh
 12e0 232c4101 23267101 9307f0ff 330a6401  #,A.#&q.....3.d.
 12f0 b38a5401 630ef73c b7170000 9387f700  ..T.c..<........
 1300 b38afa00 b7f7ffff b3fafa00 93850a00  ................
 1310 13850900 ef005016 9307f0ff 930b0500  ......P.........
 1320 6302f546 23248101 63644525 372c0000  c..F#$..cdE%7,..
 1330 130c4c65 83250c00 b385ba00 2320bc00  ..Le.%......# ..
 1340 13870500 631caa2a 93174501 6398072a  ....c..*..E.c..*
 1350 832b8900 b3075b01 93e71700 23a2fb00  .+....[.....#...
 1360 37270000 83260768 63f4b600 2320b768  7'...&.hc...# .h
 1370 37270000 8326c767 63f4b600 232eb766  7'...&.gc...#..f
 1380 032c8100 13840b00 93f7c7ff 33879740  .,..........3..@
 1390 63ec9738 9307f000 63d8e738 032a8101  c..8....c..8.*..
 13a0 832a4101 832bc100 832c4100 93e71400  .*A..+...,A.....
 13b0 2322f400 b3049400 23249900 13671700  #"......#$...g..
 13c0 13850900 23a2e400 ef000046 8320c102  ....#......F. ..
 13d0 13058400 03248102 032b0101 83244102  .....$...+...$A.
 13e0 03290102 8329c101 13010103 67800000  .)...)......g...
 13f0 03254900 6ff05fdf 03268400 6ff0dfcb  .%I.o._..&..o...
 1400 03a4c700 93852500 e38687d6 6ff0dfc9  ......%.....o...
 1410 13d79700 93064000 63f2e614 93064001  ......@.c.....@.
 1420 63e6e632 1306c705 9306b705 13163600  c..2..........6.
 1430 3306c900 03270600 130686ff 6318e600  3....'......c...
 1440 6f008029 03278700 6308e600 83264700  o..).'..c....&G.
 1450 93f6c6ff e3e8d7fe 0326c700 2326c400  .........&..#&..
 1460 2324e400 23248600 23268700 6ff0dfd7  #$..#$..#&..o...
 1470 13074001 6378f710 13074005 6366f72e  ..@.cx....@.cf..
 1480 93d7c400 9385f706 1388e706 13963500  ..............5.
 1490 6ff01fca 130e1e00 93773e00 13058500  o........w>.....
 14a0 63800710 8327c500 6ff05fd9 03268400  c....'..o._..&..
 14b0 93e51400 2322b400 2326f600 23a4c700  ....#"..#&..#...
 14c0 b3049400 232a9900 23289900 93e71600  ....#*..#(......
 14d0 23a60401 23a40401 23a2f400 3307e400  #...#...#...3...
 14e0 13850900 2320d700 ef000034 13058400  ....# .....4....
 14f0 6ff0dfbe b307f400 03a74700 13850900  o.........G.....
 1500 13671700 23a2e700 ef000032 13058400  .g..#......2....
 1510 6ff0dfbc 93d53400 93878400 6ff05fb7  o.....4.....o._.
 1520 93e61400 2322d400 b3049400 232a9900  ....#"......#*..
 1530 23289900 93661700 23a60401 23a40401  #(...f..#...#...
 1540 23a2d400 b307f400 13850900 23a0e700  #...........#...
 1550 ef00802d 13058400 6ff05fb8 13d76700  ...-....o._...g.
 1560 13069703 93068703 13163600 6ff05fec  ..........6.o._.
 1570 630c2407 03248900 032c8100 83274400  c.$..$...,...'D.
 1580 6ff09fe0 9385c705 1388b705 13963500  o.............5.
 1590 6ff01fba 83278300 9385f5ff 63906728  o....'......c.g(
 15a0 93f73500 130383ff e39607fe 03274900  ..5..........'I.
 15b0 9347f6ff b3f7e700 2322f900 13161600  .G......#"......
 15c0 e3e4c7ce e30206ce 3377f600 631a0700  ........3w..c...
 15d0 13161600 3377f600 130e4e00 e30a07fe  ....3w....N.....
 15e0 93050e00 6ff05fc4 372c0000 130c4c65  ....o._.7,....Le
 15f0 03270c00 3387ea00 2320ec00 83a6cc4e  .'..3...# .....N
 1600 9307f0ff 6386f618 b3874b41 b387e700  ....c.....KA....
 1610 2320fc00 93fc7b00 638c0c0c b38b9b41  # ....{.c......A
 1620 b7170000 93878700 938b8b00 b3859741  ...............A
 1630 b38a5b01 b3855541 93954501 13da4501  ..[...UA..E...E.
 1640 93050a00 13850900 ef000063 9307f0ff  ...........c....
 1650 6300f518 33057541 b30a4501 03270c00  c...3.uA..E..'..
 1660 23247901 93e71a00 b305ea00 2320bc00  #$y.........# ..
 1670 23a2fb00 e30624cf 9306f000 63f0660b  #.....$.....c.f.
 1680 03274400 93074bff 93f787ff 13771700  .'D...K......w..
 1690 3367f700 2322e400 13065000 3307f400  3g..#"....P.3...
 16a0 2322c700 2324c700 63e6f600 83a74b00  #"..#$..c.....K.
 16b0 6ff01fcb 93058400 13850900 eff08fe8  o...............
 16c0 832b8900 83250c00 83a74b00 6ff05fc9  .+...%....K.o._.
 16d0 938a0a01 6ff09fc3 93d62640 93071000  ....o.....&@....
 16e0 b397d700 3365f500 2322a900 6ff01fd7  ....3e..#"..o...
 16f0 b3855b01 b305b040 93954501 13da4501  ..[....@..E...E.
 1700 93050a00 13850900 ef000057 9307f0ff  ...........W....
 1710 e312f5f4 130a0000 6ff05ff4 032c8100  ........o._..,..
 1720 93071000 23a2fb00 13850900 ef00c00f  ....#...........
 1730 13050000 032a8101 832a4101 032b0101  .....*...*A..+..
 1740 832bc100 832c4100 6ff05f99 93064005  .+...,A.o._...@.
 1750 63e4e604 13d7c700 1306f706 9306e706  c...............
 1760 13163600 6ff0dfcc 13074015 6364f704  ..6.o.....@.cd..
 1770 93d7f400 93858707 13887707 13963500  ..........w...5.
 1780 6ff01f9b 03248900 83274400 6ff0dfbf  o....$...'D.o...
 1790 23a67c4f 6ff01fe8 93064015 63e4e604  #.|Oo.....@.c...
 17a0 13d7f700 13068707 93067707 13163600  ..........w...6.
 17b0 6ff01fc8 13074055 6364f704 93d72401  o.....@Ucd....$.
 17c0 9385d707 1388c707 13963500 6ff05f96  ..........5.o._.
 17d0 938c8cff b38a9a01 b38a7a41 130a0000  ..........zA....
 17e0 6ff0dfe7 93064055 63e4e602 13d72701  o.....@Uc.....'.
 17f0 1306d707 9306c707 13163600 6ff05fc3  ..........6.o._.
 1800 1306803f 9305f007 1308e007 6ff05f92  ...?........o._.
 1810 1306803f 9306e007 6ff09fc1 83274900  ...?....o....'I.
 1820 6ff0dfd9                             o...            
Contents of section .text.__malloc_lock:
 1824 67800000                             g...            
Contents of section .text.__malloc_unlock:
 1828 67800000                             g...            
Contents of section .text._fclose_r:
 182c 130101ff 23261100 23202101 63880502  ....#&..# !.c...
 183c 23248100 23229100 13840500 93040500  #$..#"..........
 184c 63060500 83274503 638c070c 8317c400  c....'E.c.......
 185c 63920702 03248100 83244100 8320c100  c....$...$A.. ..
 186c 13090000 13050900 03290100 13010101  .........)......
 187c 67800000 93050400 13850400 ef00c00b  g...............
 188c 8327c402 13090500 638a0700 8325c401  .'......c....%..
 189c 13850400 e7800700 63440506 8357c400  ........cD...W..
 18ac 93f70708 63960706 83250403 638c0500  ....c....%..c...
 18bc 93070404 6386f500 13850400 eff0cfc7  ....c...........
 18cc 23280402 83254404 63880500 13850400  #(...%D.c.......
 18dc eff08fc6 23220404 efe01fc7 23160400  ....#"......#...
 18ec efe0dfc6 8320c100 03248100 83244100  ..... ...$...$A.
 18fc 13050900 03290100 13010101 67800000  .....)......g...
 190c 8357c400 1309f0ff 93f70708 e38e07f8  .W..............
 191c 83250401 13850400 eff00fc2 6ff0dff8  .%..........o...
 192c efe05fc0 6ff09ff2                    .._.o...        
Contents of section .text.fclose:
 1934 b7270000 93050500 03a5474e 6ff0dfee  .'........GNo...
Contents of section .text.__sflush_r:
 1944 0397c500 130101fe 232c8100 23263101  ........#,..#&1.
 1954 232e1100 93778700 13840500 93090500  #....w..........
 1964 63900712 b7170000 93870780 83a64500  c.............E.
 1974 b367f700 2396f500 6352d018 03288402  .g..#...cR...(..
 1984 6304080e 232a9100 93163701 83a40900  c...#*....7.....
 1994 23a00900 8325c401 63ce0616 13060000  #....%..c.......
 19a4 93061000 13850900 e7000800 9307f0ff  ................
 19b4 13060500 6304f51a 8317c400 03288402  ....c........(..
 19c4 8325c401 93f74700 638e0700 03274400  .%....G.c....'D.
 19d4 83270403 3306e640 63860700 8327c403  .'..3..@c....'..
 19e4 3306f640 93060000 13850900 e7000800  3..@............
 19f4 9307f0ff 6314f512 83a60900 9307d001  ....c...........
 1a04 0317c400 63ead716 b7074020 93871700  ....c.....@ ....
 1a14 b3d7d700 93f71700 63800716 03260401  ........c....&..
 1a24 b7f7ffff 9387f77f b377f700 2316f400  .........w..#...
 1a34 23220400 2320c400 93173701 63d40700  #"..# ....7.c...
 1a44 63820610 83250403 23a09900 63840510  c....%..#...c...
 1a54 93070404 6386f500 13850900 eff04fae  ....c.........O.
 1a64 83244101 23280402 13050000 8320c101  .$A.#(....... ..
 1a74 03248101 8329c100 13010102 67800000  .$...)......g...
 1a84 23282101 03a90501 63020908 232a9100  #(!.....c...#*..
 1a94 83a40500 13773700 23a02501 b3842441  .....w7.#.%...$A
 1aa4 93070000 63140700 83a74501 2324f400  ....c.....E.#$..
 1ab4 63489000 6f004005 3309a900 63569004  cH..o.@.3...cV..
 1ac4 83274402 8325c401 93860400 13060900  .'D..%..........
 1ad4 13850900 e7800700 b384a440 e34ea0fc  ...........@.N..
 1ae4 0317c400 03290101 13670704 83244101  .....)...g...$A.
 1af4 2316e400 1305f0ff 6ff05ff7 83a6c503  #.......o._.....
 1b04 e34ed0e6 6ff05ff6 83244101 03290101  .N..o._..$A..)..
 1b14 6ff09ff5 03260405 6ff0dfea 0317c400  o....&..o.......
 1b24 83260401 b7f7ffff 9387f77f b377f700  .&...........w..
 1b34 2316f400 23220400 2320d400 93173701  #...#"..# ....7.
 1b44 e3d207f0 83250403 2328a404 23a09900  .....%..#(..#...
 1b54 e39005f0 83244101 6ff01ff1 83a70900  .....$A.o.......
 1b64 e38c07e4 1307d001 638ce700 13076001  ........c.....`.
 1b74 6388e700 0317c400 13670704 6ff01ff7  c........g..o...
 1b84 23a09900 83244101 6ff01fee           #....$A.o...    
Contents of section .text._fflush_r:
 1b90 130101fe 232c8100 232e1100 13040500  ....#,..#.......
 1ba0 63060500 83274503 638a0702 8397c500  c....'E.c.......
 1bb0 639c0700 8320c101 03248101 13050000  c.... ...$......
 1bc0 13010102 67800000 13050400 03248101  ....g........$..
 1bd0 8320c101 13010102 6ff0dfd6 2326b100  . ......o...#&..
 1be0 efe01f95 8325c100 6ff05ffc           .....%..o._.    
Contents of section .text.fflush:
 1bec 63020506 b7270000 93050500 03a5474e  c....'........GN
 1bfc 63060500 83274503 638c0700 8397c500  c....'E.c.......
 1c0c 63960700 13050000 67800000 6ff0dfd2  c.......g...o...
 1c1c 130101fe 2326b100 2324a100 232e1100  ....#&..#$..#...
 1c2c efe05f90 8325c100 03258100 8397c500  .._..%...%......
 1c3c 63980702 8320c101 13050000 13010102  c.... ..........
 1c4c 67800000 37260000 b7250000 37250000  g...7&...%..7%..
 1c5c 130686f9 938505b9 130585fa 6fe0df91  ............o...
 1c6c 8320c101 13010102 6ff01fcd           . ......o...    
Contents of section .text._sbrk_r:
 1c78 130101ff 23248100 23229100 13040500  ....#$..#"......
 1c88 b7240000 13850500 23261100 23a60464  .$......#&..#..d
 1c98 ef000023 9307f0ff 630cf500 8320c100  ...#....c.... ..
 1ca8 03248100 83244100 13010101 67800000  .$...$A.....g...
 1cb8 83a7c464 e38407fe 8320c100 2320f400  ...d..... ..# ..
 1cc8 03248100 83244100 13010101 67800000  .$...$A.....g...
Contents of section .text.__libc_fini_array:
 1cd8 130101ff 23248100 93070000 13040000  ....#$..........
 1ce8 3304f440 23229100 23261100 93542440  3..@#"..#&...T$@
 1cf8 63800402 1304c4ff 3304f400 83270400  c.......3....'..
 1d08 9384f4ff 1304c4ff e7800700 e39804fe  ................
 1d18 8320c100 03248100 83244100 13010101  . ...$...$A.....
 1d28 67800000                             g...            
Contents of section .text.__register_exitproc:
 1d2c 37270000 83270765 638c0704 03a74700  7'...'.ec.....G.
 1d3c 1308f001 6342e808 13182700 63060502  ....cB....'.c...
 1d4c 33830701 2324c308 83a88718 13061000  3...#$..........
 1d5c 3316e600 b3e8c800 23a41719 2324d310  3.......#...#$..
 1d6c 93062000 6308d502 13071700 23a2e700  .. .c.......#...
 1d7c b3870701 23a4b700 13050000 67800000  ....#.......g...
 1d8c b7270000 13888768 23280765 93878768  .'.....h#(.e...h
 1d9c 6ff0dff9 83a6c718 13071700 23a2e700  o...........#...
 1dac b3e6c600 23a6d718 b3870701 23a4b700  ....#.......#...
 1dbc 13050000 67800000 1305f0ff 67800000  ....g.......g...
Contents of section .text._close:
 1dcc 130101ff 23261100 23248100 93089003  ....#&..#$......
 1ddc 73000000 13040500 634c0500 8320c100  s.......cL... ..
 1dec 13050400 03248100 13010101 67800000  .....$......g...
 1dfc 33048040 ef008018 23208500 1304f0ff  3..@....# ......
 1e0c 6ff0dffd                             o...            
Contents of section .text._exit:
 1e10 9308d005 73000000 63440500 6f000000  ....s...cD..o...
 1e20 130101ff 23248100 13040500 23261100  ....#$......#&..
 1e30 33048040 ef004015 23208500 6f000000  3..@..@.# ..o...
Contents of section .text._lseek:
 1e40 130101ff 23261100 23248100 9308e003  ....#&..#$......
 1e50 73000000 13040500 634c0500 8320c100  s.......cL... ..
 1e60 13050400 03248100 13010101 67800000  .....$......g...
 1e70 33048040 ef004011 23208500 1304f0ff  3..@..@.# ......
 1e80 6ff0dffd                             o...            
Contents of section .text._read:
 1e84 130101ff 23261100 23248100 9308f003  ....#&..#$......
 1e94 73000000 13040500 634c0500 8320c100  s.......cL... ..
 1ea4 13050400 03248100 13010101 67800000  .....$......g...
 1eb4 33048040 ef00000d 23208500 1304f0ff  3..@....# ......
 1ec4 6ff0dffd                             o...            
Contents of section .text._sbrk:
 1ec8 b7360000 03a78681 130101ff 23261100  .6..........#&..
 1ed8 93070500 63100702 9308600d 13050000  ....c.....`.....
 1ee8 73000000 1306f0ff 13070500 630ac502  s...........c...
 1ef8 23aca680 9308600d 3385e700 73000000  #.....`.3...s...
 1f08 03a78681 b387e700 631cf500 8320c100  ........c.... ..
 1f18 23aca680 13050700 13010101 67800000  #...........g...
 1f28 ef000006 8320c100 9307c000 2320f500  ..... ......# ..
 1f38 1305f0ff 13010101 67800000           ........g...    
Contents of section .text._write:
 1f44 130101ff 23261100 23248100 93080004  ....#&..#$......
 1f54 73000000 13040500 634c0500 8320c100  s.......cL... ..
 1f64 13050400 03248100 13010101 67800000  .....$......g...
 1f74 33048040 ef000001 23208500 1304f0ff  3..@....# ......
 1f84 6ff0dffd                             o...            
Contents of section .text.__errno:
 1f88 b7270000 03a5474e 67800000           .'....GNg...    
Contents of section .data:
 1f98 00000000 03000000 10250000 00000000  .........%......
 1fa8 00000000 10250000 78250000 e0250000  .....%..x%...%..
 1fb8 00000000 00000000 00000000 00000000  ................
 1fc8 00000000 00000000 00000000 00000000  ................
 1fd8 00000000 00000000 00000000 00000000  ................
 1fe8 00000000 00000000 00000000 00000000  ................
 1ff8 00000000 00000000 00000000 00000000  ................
 2008 00000000 00000000 00000000 00000000  ................
 2018 00000000 00000000 00000000 00000000  ................
 2028 00000000 00000000 00000000 00000000  ................
 2038 00000000 00000000 01000000 00000000  ................
 2048 0e33cdab 34126de6 ecde0500 0b000000  .3..4.m.........
 2058 00000000 00000000 00000000 00000000  ................
 2068 00000000 00000000 00000000 00000000  ................
 2078 00000000 00000000 00000000 00000000  ................
 2088 00000000 00000000 00000000 00000000  ................
 2098 00000000 00000000 00000000 00000000  ................
 20a8 00000000 00000000 00000000 00000000  ................
 20b8 00000000 00000000 00000000 00000000  ................
 20c8 00000000 00000000 c8200000 c8200000  ......... ... ..
 20d8 d0200000 d0200000 d8200000 d8200000  . ... ... ... ..
 20e8 e0200000 e0200000 e8200000 e8200000  . ... ... ... ..
 20f8 f0200000 f0200000 f8200000 f8200000  . ... ... ... ..
 2108 00210000 00210000 08210000 08210000  .!...!...!...!..
 2118 10210000 10210000 18210000 18210000  .!...!...!...!..
 2128 20210000 20210000 28210000 28210000   !.. !..(!..(!..
 2138 30210000 30210000 38210000 38210000  0!..0!..8!..8!..
 2148 40210000 40210000 48210000 48210000  @!..@!..H!..H!..
 2158 50210000 50210000 58210000 58210000  P!..P!..X!..X!..
 2168 60210000 60210000 68210000 68210000  `!..`!..h!..h!..
 2178 70210000 70210000 78210000 78210000  p!..p!..x!..x!..
 2188 80210000 80210000 88210000 88210000  .!...!...!...!..
 2198 90210000 90210000 98210000 98210000  .!...!...!...!..
 21a8 a0210000 a0210000 a8210000 a8210000  .!...!...!...!..
 21b8 b0210000 b0210000 b8210000 b8210000  .!...!...!...!..
 21c8 c0210000 c0210000 c8210000 c8210000  .!...!...!...!..
 21d8 d0210000 d0210000 d8210000 d8210000  .!...!...!...!..
 21e8 e0210000 e0210000 e8210000 e8210000  .!...!...!...!..
 21f8 f0210000 f0210000 f8210000 f8210000  .!...!...!...!..
 2208 00220000 00220000 08220000 08220000  ."..."..."..."..
 2218 10220000 10220000 18220000 18220000  ."..."..."..."..
 2228 20220000 20220000 28220000 28220000   ".. "..("..("..
 2238 30220000 30220000 38220000 38220000  0"..0"..8"..8"..
 2248 40220000 40220000 48220000 48220000  @"..@"..H"..H"..
 2258 50220000 50220000 58220000 58220000  P"..P"..X"..X"..
 2268 60220000 60220000 68220000 68220000  `"..`"..h"..h"..
 2278 70220000 70220000 78220000 78220000  p"..p"..x"..x"..
 2288 80220000 80220000 88220000 88220000  ."..."..."..."..
 2298 90220000 90220000 98220000 98220000  ."..."..."..."..
 22a8 a0220000 a0220000 a8220000 a8220000  ."..."..."..."..
 22b8 b0220000 b0220000 b8220000 b8220000  ."..."..."..."..
 22c8 c0220000 c0220000 c8220000 c8220000  ."..."..."..."..
 22d8 d0220000 d0220000 d8220000 d8220000  ."..."..."..."..
 22e8 e0220000 e0220000 e8220000 e8220000  ."..."..."..."..
 22f8 f0220000 f0220000 f8220000 f8220000  ."..."..."..."..
 2308 00230000 00230000 08230000 08230000  .#...#...#...#..
 2318 10230000 10230000 18230000 18230000  .#...#...#...#..
 2328 20230000 20230000 28230000 28230000   #.. #..(#..(#..
 2338 30230000 30230000 38230000 38230000  0#..0#..8#..8#..
 2348 40230000 40230000 48230000 48230000  @#..@#..H#..H#..
 2358 50230000 50230000 58230000 58230000  P#..P#..X#..X#..
 2368 60230000 60230000 68230000 68230000  `#..`#..h#..h#..
 2378 70230000 70230000 78230000 78230000  p#..p#..x#..x#..
 2388 80230000 80230000 88230000 88230000  .#...#...#...#..
 2398 90230000 90230000 98230000 98230000  .#...#...#...#..
 23a8 a0230000 a0230000 a8230000 a8230000  .#...#...#...#..
 23b8 b0230000 b0230000 b8230000 b8230000  .#...#...#...#..
 23c8 c0230000 c0230000 c8230000 c8230000  .#...#...#...#..
 23d8 d0230000 d0230000 d8230000 d8230000  .#...#...#...#..
 23e8 e0230000 e0230000 e8230000 e8230000  .#...#...#...#..
 23f8 f0230000 f0230000 f8230000 f8230000  .#...#...#...#..
 2408 00240000 00240000 08240000 08240000  .$...$...$...$..
 2418 10240000 10240000 18240000 18240000  .$...$...$...$..
 2428 20240000 20240000 28240000 28240000   $.. $..($..($..
 2438 30240000 30240000 38240000 38240000  0$..0$..8$..8$..
 2448 40240000 40240000 48240000 48240000  @$..@$..H$..H$..
 2458 50240000 50240000 58240000 58240000  P$..P$..X$..X$..
 2468 60240000 60240000 68240000 68240000  `$..`$..h$..h$..
 2478 70240000 70240000 78240000 78240000  p$..p$..x$..x$..
 2488 80240000 80240000 88240000 88240000  .$...$...$...$..
 2498 90240000 90240000 98240000 98240000  .$...$...$...$..
 24a8 a0240000 a0240000 a8240000 a8240000  .$...$...$...$..
 24b8 b0240000 b0240000 b8240000 b8240000  .$...$...$...$..
 24c8 c0240000 c0240000 00000000 00c00011  .$...$..........
Contents of section .eh_frame:
 24d8 00000000                             ....            
Contents of section .fini_array:
 24dc 64000000                             d...            
Contents of section .init_array:
 24e0 ac000000                             ....            
Contents of section .sdata._impure_ptr:
 24e4 a81f0000                             ....            
Contents of section .init_array.00000:
 24e8 9c0a0000                             ....            
Contents of section .sdata.__malloc_sbrk_base:
 24ec ffffffff                             ....            
Contents of section .sdata.__malloc_trim_threshold:
 24f0 00000200                             ....            
Contents of section .riscv.attributes:
 0000 411b0000 00726973 63760001 11000000  A....riscv......
 0010 04100572 76333269 32703100           ...rv32i2p1.    
Contents of section .comment:
 0000 4743433a 20282920 31332e32 2e300047  GCC: () 13.2.0.G
 0010 43433a20 28474e55 29203133 2e322e30  CC: (GNU) 13.2.0
 0020 00                                   .               
Contents of section .debug_info:
 0000 d9000000 05000104 00000000 02100000  ................
 0010 001d4600 00000000 00001800 00000000  ..F.............
 0020 00000000 00000307 00000001 010f3800  ..............8.
 0030 00000503 d4240000 04044500 00000504  .....$....E.....
 0040 05696e74 00063e00 00000700 00000001  .int..>.........
 0050 10053e00 00000166 00000008 78000110  ..>....f....x...
 0060 103e0000 00000961 00000001 04053e00  .>.....a......>.
 0070 0000b401 00002800 0000019c c3000000  ......(.........
 0080 0a6c6564 00010509 3e000000 0c000000  .led....>.......
 0090 0bcc0100 00100000 00a80000 000c6900  ..............i.
 00a0 0109123e 00000000 0d4a0000 00bc0100  ...>.....J......
 00b0 000c0000 0001070f 015b0000 001d0000  .........[......
 00c0 0000000e 4a000000 d0000000 08000000  ....J...........
 00d0 019c015b 00000026 00000000 00200000  ...[...&..... ..
 00e0 00050001 04d90000 0001f300 00000000  ................
 00f0 00001466 0000006d 000000b3 00000001  ...f...m........
 0100 80                                   .               
Contents of section .debug_abbrev:
 0000 01050031 13021700 00021101 250e130b  ...1........%...
 0010 031f1b1f 55171101 10170000 03340003  ....U........4..
 0020 0e3a0b3b 0b390b49 133f1902 18000004  .:.;.9.I.?......
 0030 0f000b0b 49130000 0524000b 0b3e0b03  ....I....$...>..
 0040 08000006 35004913 0000072e 013f1903  ....5.I......?..
 0050 0e3a0b3b 0b390b27 19491320 0b011300  .:.;.9.'.I. ....
 0060 00080500 03083a0b 3b0b390b 49130000  ......:.;.9.I...
 0070 092e013f 19030e3a 0b3b0b39 0b271949  ...?...:.;.9.'.I
 0080 13110112 0640187a 19011300 000a3400  .....@.z......4.
 0090 03083a0b 3b0b390b 49130217 00000b0b  ..:.;.9.I.......
 00a0 01110112 06011300 000c3400 03083a0b  ..........4...:.
 00b0 3b0b390b 49130000 0d1d0131 13520155  ;.9.I......1.R.U
 00c0 17580b59 0b570b00 000e2e01 31131101  .X.Y.W......1...
 00d0 12064018 7a190000 00011100 10171101  ..@.z...........
 00e0 120f030e 1b0e250e 13050000 00        ......%......   
Contents of section .debug_loclists:
 0000 36000000 05000400 00000000 06b40100  6...............
 0010 00040008 02319f04 0828015e 0008bc01  .....1...(.^....
 0020 00000801 5e0006d0 00000004 0004015a  ....^..........Z
 0030 04040805 7a003127 9f00               ....z.1'..      
Contents of section .debug_aranges:
 0000 24000000 02000000 00000400 00000000  $...............
 0010 d0000000 08000000 b4010000 28000000  ............(...
 0020 00000000 00000000 1c000000 0200dd00  ................
 0030 00000400 00000000 00000000 10000000  ................
 0040 00000000 00000000                    ........        
Contents of section .debug_rnglists:
 0000 21000000 05000400 00000000 05bc0100  !...............
 0010 00040000 04040800 07d00000 000807b4  ................
 0020 01000028 00                          ...(.           
Contents of section .debug_line:
 0000 ef000000 05000400 2a000000 010101fb  ........*.......
 0010 0e0d0001 01010100 00000100 00010101  ................
 0020 1f010000 00000201 1f020f02 46000000  ............F...
 0030 00460000 00000510 000502b4 01000015  .F..............
 0040 05050301 09000001 05090603 00090000  ................
 0050 01050506 03010908 00010509 03010900  ................
 0060 00010505 030a0900 00010509 06037709  ..............w.
 0070 00000105 0e030909 04000105 09060377  ...............w
 0080 09040001 05130603 00090000 01050906  ................
 0090 03010908 0001050e 03000900 0001051b  ................
 00a0 00020401 03000900 0001050d 03010900  ................
 00b0 00010523 00020403 037f0904 0001051b  ...#............
 00c0 00020401 03000900 0001090c 00000101  ................
 00d0 05130005 02d00000 00030f01 05050301  ................
 00e0 09000001 05010603 01090000 01090800  ................
 00f0 0001014c 00000005 0004002a 00000001  ...L.......*....
 0100 0101fb0e 0d000101 01010000 00010000  ................
 0110 0101011f 01000000 0002011f 020f024d  ...............M
 0120 00000000 4d000000 00000502 00000000  ....M...........
 0130 17030309 08000103 03090400 01090400  ................
 0140 000101                               ...             
Contents of section .debug_str:
 0000 746f6767 6c65004c 45445f41 44445200  toggle.LED_ADDR.
 0010 474e5520 43313720 31332e32 2e30202d  GNU C17 13.2.0 -
 0020 6d616269 3d696c70 3332202d 6d74756e  mabi=ilp32 -mtun
 0030 653d726f 636b6574 202d6d69 73612d73  e=rocket -misa-s
 0040 7065633d 32303139 31323133 202d6d61  pec=20191213 -ma
 0050 7263683d 72763332 69202d67 202d4f33  rch=rv32i -g -O3
 0060 006d6169 6e00696e 69742e73 002f6d6e  .main.init.s./mn
 0070 742f7a2f 70657273 6f6e616c 2f726973  t/z/personal/ris
 0080 63762d73 6f667463 6f72652f 4f747465  cv-softcore/Otte
 0090 72506970 656c696e 6546696c 65732f70  rPipelineFiles/p
 00a0 726f6772 616d732f 635f636f 6d70696c  rograms/c_compil
 00b0 65720047 4e552041 5320322e 343100    er.GNU AS 2.41. 
Contents of section .debug_line_str:
 0000 2f6d6e74 2f7a2f70 6572736f 6e616c2f  /mnt/z/personal/
 0010 72697363 762d736f 6674636f 72652f4f  riscv-softcore/O
 0020 74746572 50697065 6c696e65 46696c65  tterPipelineFile
 0030 732f7072 6f677261 6d732f63 5f636f6d  s/programs/c_com
 0040 70696c65 72006d61 696e2e63 00696e69  piler.main.c.ini
 0050 742e7300                             t.s.            
Contents of section .debug_frame:
 0000 0c000000 ffffffff 0300017c 010d0200  ...........|....
 0010 0c000000 00000000 b4010000 28000000  ............(...
 0020 0c000000 00000000 d0000000 08000000  ................

Disassembly of section .text.init:

00000000 <entry>:
# RISC-V baremetal init.s
# This code is executed first.

.section .text.init
entry:
    la    sp, __sp      # set up the stack pointer, using a constant defined in the linker script.
   0:	auipc	sp,0x10
   4:	mv	sp,sp
    # call _start		    # use this if using C runtime, std c library

    call main           # call the main function if barebones assembly/C
   8:	jal	1b4 <main>

0000000c <end>:

end:
    j end               # loop when finished if there is no environment to return to.
   c:	j	c <end>

Disassembly of section .text:

00000010 <_start>:
  10:	auipc	gp,0x1
  14:	add	gp,gp,-1628 # 9b4 <__global_pointer$>
  18:	auipc	a0,0x2
  1c:	add	a0,a0,1244 # 24f4 <completed.1>
  20:	auipc	a2,0x2
  24:	add	a2,a2,1264 # 2510 <__sf>
  28:	sub	a2,a2,a0
  2c:	li	a1,0
  30:	jal	d8 <memset>
  34:	auipc	a0,0x1
  38:	add	a0,a0,-1096 # bec <atexit>
  3c:	beqz	a0,4c <_start+0x3c>
  40:	auipc	a0,0x2
  44:	add	a0,a0,-872 # 1cd8 <__libc_fini_array>
  48:	jal	bec <atexit>
  4c:	jal	a10 <__libc_init_array>
  50:	lw	a0,0(sp) # 10000 <__sp>
  54:	add	a1,sp,4
  58:	li	a2,0
  5c:	jal	1b4 <main>
  60:	j	1dc <exit>

00000064 <__do_global_dtors_aux>:
  64:	add	sp,sp,-16
  68:	sw	s0,8(sp)
  6c:	lui	s0,0x2
  70:	lbu	a5,1268(s0) # 24f4 <completed.1>
  74:	sw	ra,12(sp)
  78:	bnez	a5,9c <__do_global_dtors_aux+0x38>
  7c:	li	a5,0
  80:	beqz	a5,94 <__do_global_dtors_aux+0x30>
  84:	lui	a0,0x2
  88:	add	a0,a0,1240 # 24d8 <__EH_FRAME_BEGIN__>
  8c:	auipc	ra,0x0
  90:	jalr	zero # 0 <entry>
  94:	li	a5,1
  98:	sb	a5,1268(s0)
  9c:	lw	ra,12(sp)
  a0:	lw	s0,8(sp)
  a4:	add	sp,sp,16
  a8:	ret

000000ac <frame_dummy>:
  ac:	li	a5,0
  b0:	beqz	a5,cc <frame_dummy+0x20>
  b4:	lui	a1,0x2
  b8:	lui	a0,0x2
  bc:	add	a1,a1,1272 # 24f8 <object.0>
  c0:	add	a0,a0,1240 # 24d8 <__EH_FRAME_BEGIN__>
  c4:	auipc	t1,0x0
  c8:	jr	zero # 0 <entry>
  cc:	ret

000000d0 <toggle>:
    return 0;
}

int toggle(int x) {
    return x ^ 1;
  d0:	xor	a0,a0,1
  d4:	ret

000000d8 <memset>:
  d8:	li	t1,15
  dc:	mv	a4,a0
  e0:	bgeu	t1,a2,11c <memset+0x44>
  e4:	and	a5,a4,15
  e8:	bnez	a5,188 <memset+0xb0>
  ec:	bnez	a1,170 <memset+0x98>
  f0:	and	a3,a2,-16
  f4:	and	a2,a2,15
  f8:	add	a3,a3,a4
  fc:	sw	a1,0(a4)
 100:	sw	a1,4(a4)
 104:	sw	a1,8(a4)
 108:	sw	a1,12(a4)
 10c:	add	a4,a4,16
 110:	bltu	a4,a3,fc <memset+0x24>
 114:	bnez	a2,11c <memset+0x44>
 118:	ret
 11c:	sub	a3,t1,a2
 120:	sll	a3,a3,0x2
 124:	auipc	t0,0x0
 128:	add	a3,a3,t0
 12c:	jr	12(a3)
 130:	sb	a1,14(a4)
 134:	sb	a1,13(a4)
 138:	sb	a1,12(a4)
 13c:	sb	a1,11(a4)
 140:	sb	a1,10(a4)
 144:	sb	a1,9(a4)
 148:	sb	a1,8(a4)
 14c:	sb	a1,7(a4)
 150:	sb	a1,6(a4)
 154:	sb	a1,5(a4)
 158:	sb	a1,4(a4)
 15c:	sb	a1,3(a4)
 160:	sb	a1,2(a4)
 164:	sb	a1,1(a4)
 168:	sb	a1,0(a4)
 16c:	ret
 170:	zext.b	a1,a1
 174:	sll	a3,a1,0x8
 178:	or	a1,a1,a3
 17c:	sll	a3,a1,0x10
 180:	or	a1,a1,a3
 184:	j	f0 <memset+0x18>
 188:	sll	a3,a5,0x2
 18c:	auipc	t0,0x0
 190:	add	a3,a3,t0
 194:	mv	t0,ra
 198:	jalr	-96(a3)
 19c:	mv	ra,t0
 1a0:	add	a5,a5,-16
 1a4:	sub	a4,a4,a5
 1a8:	add	a2,a2,a5
 1ac:	bgeu	t1,a2,11c <memset+0x44>
 1b0:	j	ec <memset+0x14>

Disassembly of section .text.startup:

000001b4 <main>:
    int led = 1;
 1b4:	li	a4,1
 1b8:	lui	a2,0x2
        *LED_ADDR = led;
 1bc:	lw	a3,1236(a2) # 24d4 <LED_ADDR>
    return x ^ 1;
 1c0:	xor	a4,a4,1
        *LED_ADDR = led;
 1c4:	li	a5,100
 1c8:	sw	a4,0(a3)
            asm("nop");
 1cc:	nop
        for (int i = 0; i < 100; i++) {
 1d0:	add	a5,a5,-1
 1d4:	bnez	a5,1cc <main+0x18>
 1d8:	j	1bc <main+0x8>

Disassembly of section .text.exit:

000001dc <exit>:
 1dc:	add	sp,sp,-16
 1e0:	li	a1,0
 1e4:	sw	s0,8(sp)
 1e8:	sw	ra,12(sp)
 1ec:	mv	s0,a0
 1f0:	jal	ab4 <__call_exitprocs>
 1f4:	lui	a5,0x2
 1f8:	lw	a5,1608(a5) # 2648 <__stdio_exit_handler>
 1fc:	beqz	a5,204 <exit+0x28>
 200:	jalr	a5
 204:	mv	a0,s0
 208:	jal	1e10 <_exit>

Disassembly of section .text.__fp_lock:

0000020c <__fp_lock>:
 20c:	li	a0,0
 210:	ret

Disassembly of section .text.stdio_exit_handler:

00000214 <stdio_exit_handler>:
 214:	lui	a2,0x2
 218:	lui	a1,0x2
 21c:	lui	a0,0x2
 220:	add	a2,a2,-104 # 1f98 <__sglue>
 224:	add	a1,a1,-2004 # 182c <_fclose_r>
 228:	add	a0,a0,-88 # 1fa8 <_impure_data>
 22c:	j	584 <_fwalk_sglue>

Disassembly of section .text.cleanup_stdio:

00000230 <cleanup_stdio>:
 230:	lw	a1,4(a0)
 234:	add	sp,sp,-16
 238:	lui	a5,0x2
 23c:	sw	s0,8(sp)
 240:	sw	ra,12(sp)
 244:	add	a5,a5,1296 # 2510 <__sf>
 248:	mv	s0,a0
 24c:	beq	a1,a5,254 <cleanup_stdio+0x24>
 250:	jal	182c <_fclose_r>
 254:	lw	a1,8(s0)
 258:	lui	a5,0x2
 25c:	add	a5,a5,1400 # 2578 <__sf+0x68>
 260:	beq	a1,a5,26c <cleanup_stdio+0x3c>
 264:	mv	a0,s0
 268:	jal	182c <_fclose_r>
 26c:	lw	a1,12(s0)
 270:	lui	a5,0x2
 274:	add	a5,a5,1504 # 25e0 <__sf+0xd0>
 278:	beq	a1,a5,290 <cleanup_stdio+0x60>
 27c:	mv	a0,s0
 280:	lw	s0,8(sp)
 284:	lw	ra,12(sp)
 288:	add	sp,sp,16
 28c:	j	182c <_fclose_r>
 290:	lw	ra,12(sp)
 294:	lw	s0,8(sp)
 298:	add	sp,sp,16
 29c:	ret

Disassembly of section .text.__fp_unlock:

000002a0 <__fp_unlock>:
 2a0:	li	a0,0
 2a4:	ret

Disassembly of section .text.global_stdio_init.part.0:

000002a8 <global_stdio_init.part.0>:
 2a8:	add	sp,sp,-32
 2ac:	sw	s0,24(sp)
 2b0:	lui	a4,0x2
 2b4:	li	a5,532
 2b8:	lui	s0,0x2
 2bc:	lui	a0,0x2
 2c0:	add	s0,s0,1296 # 2510 <__sf>
 2c4:	sw	ra,28(sp)
 2c8:	sw	s1,20(sp)
 2cc:	sw	s2,16(sp)
 2d0:	sw	s3,12(sp)
 2d4:	sw	s4,8(sp)
 2d8:	sw	a5,1608(a4) # 2648 <__stdio_exit_handler>
 2dc:	li	a2,8
 2e0:	li	a5,4
 2e4:	li	a1,0
 2e8:	add	a0,a0,1388 # 256c <__sf+0x5c>
 2ec:	sw	a5,12(s0)
 2f0:	sw	zero,0(s0)
 2f4:	sw	zero,4(s0)
 2f8:	sw	zero,8(s0)
 2fc:	sw	zero,100(s0)
 300:	sw	zero,16(s0)
 304:	sw	zero,20(s0)
 308:	sw	zero,24(s0)
 30c:	jal	d8 <memset>
 310:	lui	a5,0x10
 314:	lui	a0,0x2
 318:	li	s4,1592
 31c:	li	s3,1692
 320:	li	s2,1828
 324:	li	s1,1948
 328:	add	a5,a5,9 # 10009 <__sp+0x9>
 32c:	li	a2,8
 330:	li	a1,0
 334:	add	a0,a0,1492 # 25d4 <__sf+0xc4>
 338:	sw	s4,32(s0)
 33c:	sw	s3,36(s0)
 340:	sw	s2,40(s0)
 344:	sw	s1,44(s0)
 348:	sw	a5,116(s0)
 34c:	sw	s0,28(s0)
 350:	sw	zero,104(s0)
 354:	sw	zero,108(s0)
 358:	sw	zero,112(s0)
 35c:	sw	zero,204(s0)
 360:	sw	zero,120(s0)
 364:	sw	zero,124(s0)
 368:	sw	zero,128(s0)
 36c:	jal	d8 <memset>
 370:	lui	a5,0x20
 374:	lui	a0,0x2
 378:	lui	a4,0x2
 37c:	add	a5,a5,18 # 20012 <__sp+0x10012>
 380:	add	a4,a4,1400 # 2578 <__sf+0x68>
 384:	li	a2,8
 388:	li	a1,0
 38c:	add	a0,a0,1596 # 263c <__sf+0x12c>
 390:	sw	s4,136(s0)
 394:	sw	s3,140(s0)
 398:	sw	s2,144(s0)
 39c:	sw	s1,148(s0)
 3a0:	sw	a5,220(s0)
 3a4:	sw	a4,132(s0)
 3a8:	sw	zero,208(s0)
 3ac:	sw	zero,212(s0)
 3b0:	sw	zero,216(s0)
 3b4:	sw	zero,308(s0)
 3b8:	sw	zero,224(s0)
 3bc:	sw	zero,228(s0)
 3c0:	sw	zero,232(s0)
 3c4:	jal	d8 <memset>
 3c8:	lui	a5,0x2
 3cc:	add	a5,a5,1504 # 25e0 <__sf+0xd0>
 3d0:	sw	s4,240(s0)
 3d4:	sw	s3,244(s0)
 3d8:	sw	s2,248(s0)
 3dc:	sw	s1,252(s0)
 3e0:	lw	ra,28(sp)
 3e4:	sw	a5,236(s0)
 3e8:	lw	s0,24(sp)
 3ec:	lw	s1,20(sp)
 3f0:	lw	s2,16(sp)
 3f4:	lw	s3,12(sp)
 3f8:	lw	s4,8(sp)
 3fc:	add	sp,sp,32
 400:	ret

Disassembly of section .text.__sfp:

00000404 <__sfp>:
 404:	lui	a5,0x2
 408:	lw	a5,1608(a5) # 2648 <__stdio_exit_handler>
 40c:	add	sp,sp,-32
 410:	sw	s3,12(sp)
 414:	sw	ra,28(sp)
 418:	sw	s0,24(sp)
 41c:	sw	s1,20(sp)
 420:	sw	s2,16(sp)
 424:	mv	s3,a0
 428:	beqz	a5,518 <__sfp+0x114>
 42c:	lui	s2,0x2
 430:	add	s2,s2,-104 # 1f98 <__sglue>
 434:	li	s1,-1
 438:	lw	a5,4(s2)
 43c:	lw	s0,8(s2)
 440:	add	a5,a5,-1
 444:	bgez	a5,454 <__sfp+0x50>
 448:	j	4c8 <__sfp+0xc4>
 44c:	add	s0,s0,104
 450:	beq	a5,s1,4c8 <__sfp+0xc4>
 454:	lh	a4,12(s0)
 458:	add	a5,a5,-1
 45c:	bnez	a4,44c <__sfp+0x48>
 460:	lui	a5,0xffff0
 464:	add	a5,a5,1 # ffff0001 <__sp+0xfffe0001>
 468:	sw	a5,12(s0)
 46c:	sw	zero,100(s0)
 470:	sw	zero,0(s0)
 474:	sw	zero,8(s0)
 478:	sw	zero,4(s0)
 47c:	sw	zero,16(s0)
 480:	sw	zero,20(s0)
 484:	sw	zero,24(s0)
 488:	li	a2,8
 48c:	li	a1,0
 490:	add	a0,s0,92
 494:	jal	d8 <memset>
 498:	sw	zero,48(s0)
 49c:	sw	zero,52(s0)
 4a0:	sw	zero,68(s0)
 4a4:	sw	zero,72(s0)
 4a8:	lw	ra,28(sp)
 4ac:	mv	a0,s0
 4b0:	lw	s0,24(sp)
 4b4:	lw	s1,20(sp)
 4b8:	lw	s2,16(sp)
 4bc:	lw	s3,12(sp)
 4c0:	add	sp,sp,32
 4c4:	ret
 4c8:	lw	s0,0(s2)
 4cc:	beqz	s0,4d8 <__sfp+0xd4>
 4d0:	mv	s2,s0
 4d4:	j	438 <__sfp+0x34>
 4d8:	li	a1,428
 4dc:	mv	a0,s3
 4e0:	jal	1050 <_malloc_r>
 4e4:	mv	s0,a0
 4e8:	beqz	a0,520 <__sfp+0x11c>
 4ec:	add	a0,a0,12
 4f0:	li	a5,4
 4f4:	sw	zero,0(s0)
 4f8:	sw	a5,4(s0)
 4fc:	sw	a0,8(s0)
 500:	li	a2,416
 504:	li	a1,0
 508:	jal	d8 <memset>
 50c:	sw	s0,0(s2)
 510:	mv	s2,s0
 514:	j	438 <__sfp+0x34>
 518:	jal	2a8 <global_stdio_init.part.0>
 51c:	j	42c <__sfp+0x28>
 520:	sw	zero,0(s2)
 524:	li	a5,12
 528:	sw	a5,0(s3)
 52c:	j	4a8 <__sfp+0xa4>

Disassembly of section .text.__sinit:

00000530 <__sinit>:
 530:	lw	a5,52(a0)
 534:	beqz	a5,53c <__sinit+0xc>
 538:	ret
 53c:	lui	a5,0x2
 540:	lw	a4,1608(a5) # 2648 <__stdio_exit_handler>
 544:	li	a5,560
 548:	sw	a5,52(a0)
 54c:	bnez	a4,538 <__sinit+0x8>
 550:	j	2a8 <global_stdio_init.part.0>

Disassembly of section .text.__sfp_lock_acquire:

00000554 <__sfp_lock_acquire>:
 554:	ret

Disassembly of section .text.__sfp_lock_release:

00000558 <__sfp_lock_release>:
 558:	ret

Disassembly of section .text.__fp_lock_all:

0000055c <__fp_lock_all>:
 55c:	lui	a2,0x2
 560:	add	a2,a2,-104 # 1f98 <__sglue>
 564:	li	a1,524
 568:	li	a0,0
 56c:	j	584 <_fwalk_sglue>

Disassembly of section .text.__fp_unlock_all:

00000570 <__fp_unlock_all>:
 570:	lui	a2,0x2
 574:	add	a2,a2,-104 # 1f98 <__sglue>
 578:	li	a1,672
 57c:	li	a0,0
 580:	j	584 <_fwalk_sglue>

Disassembly of section .text._fwalk_sglue:

00000584 <_fwalk_sglue>:
 584:	add	sp,sp,-48
 588:	sw	s2,32(sp)
 58c:	sw	s3,28(sp)
 590:	sw	s4,24(sp)
 594:	sw	s5,20(sp)
 598:	sw	s6,16(sp)
 59c:	sw	s7,12(sp)
 5a0:	sw	ra,44(sp)
 5a4:	sw	s0,40(sp)
 5a8:	sw	s1,36(sp)
 5ac:	mv	s6,a0
 5b0:	mv	s7,a1
 5b4:	mv	s5,a2
 5b8:	li	s4,0
 5bc:	li	s3,1
 5c0:	li	s2,-1
 5c4:	lw	s1,4(s5)
 5c8:	lw	s0,8(s5)
 5cc:	add	s1,s1,-1
 5d0:	bltz	s1,600 <_fwalk_sglue+0x7c>
 5d4:	lhu	a5,12(s0)
 5d8:	bgeu	s3,a5,5f4 <_fwalk_sglue+0x70>
 5dc:	lh	a5,14(s0)
 5e0:	mv	a1,s0
 5e4:	mv	a0,s6
 5e8:	beq	a5,s2,5f4 <_fwalk_sglue+0x70>
 5ec:	jalr	s7
 5f0:	or	s4,s4,a0
 5f4:	add	s1,s1,-1
 5f8:	add	s0,s0,104
 5fc:	bne	s1,s2,5d4 <_fwalk_sglue+0x50>
 600:	lw	s5,0(s5)
 604:	bnez	s5,5c4 <_fwalk_sglue+0x40>
 608:	lw	ra,44(sp)
 60c:	lw	s0,40(sp)
 610:	lw	s1,36(sp)
 614:	lw	s2,32(sp)
 618:	lw	s3,28(sp)
 61c:	lw	s5,20(sp)
 620:	lw	s6,16(sp)
 624:	lw	s7,12(sp)
 628:	mv	a0,s4
 62c:	lw	s4,24(sp)
 630:	add	sp,sp,48
 634:	ret

Disassembly of section .text.__sread:

00000638 <__sread>:
 638:	add	sp,sp,-16
 63c:	sw	s0,8(sp)
 640:	mv	s0,a1
 644:	lh	a1,14(a1)
 648:	sw	ra,12(sp)
 64c:	jal	938 <_read_r>
 650:	bltz	a0,670 <__sread+0x38>
 654:	lw	a5,80(s0)
 658:	lw	ra,12(sp)
 65c:	add	a5,a5,a0
 660:	sw	a5,80(s0)
 664:	lw	s0,8(sp)
 668:	add	sp,sp,16
 66c:	ret
 670:	lhu	a5,12(s0)
 674:	lui	a4,0xfffff
 678:	add	a4,a4,-1 # ffffefff <__sp+0xfffeefff>
 67c:	and	a5,a5,a4
 680:	lw	ra,12(sp)
 684:	sh	a5,12(s0)
 688:	lw	s0,8(sp)
 68c:	add	sp,sp,16
 690:	ret

Disassembly of section .text.__seofread:

00000694 <__seofread>:
 694:	li	a0,0
 698:	ret

Disassembly of section .text.__swrite:

0000069c <__swrite>:
 69c:	lh	a5,12(a1)
 6a0:	add	sp,sp,-32
 6a4:	sw	s0,24(sp)
 6a8:	sw	s1,20(sp)
 6ac:	sw	s2,16(sp)
 6b0:	sw	s3,12(sp)
 6b4:	sw	ra,28(sp)
 6b8:	and	a4,a5,256
 6bc:	mv	s0,a1
 6c0:	mv	s1,a0
 6c4:	mv	s2,a2
 6c8:	mv	s3,a3
 6cc:	bnez	a4,70c <__swrite+0x70>
 6d0:	lui	a4,0xfffff
 6d4:	add	a4,a4,-1 # ffffefff <__sp+0xfffeefff>
 6d8:	and	a5,a5,a4
 6dc:	lh	a1,14(s0)
 6e0:	sh	a5,12(s0)
 6e4:	lw	s0,24(sp)
 6e8:	lw	ra,28(sp)
 6ec:	mv	a3,s3
 6f0:	mv	a2,s2
 6f4:	lw	s3,12(sp)
 6f8:	lw	s2,16(sp)
 6fc:	mv	a0,s1
 700:	lw	s1,20(sp)
 704:	add	sp,sp,32
 708:	j	9a4 <_write_r>
 70c:	lh	a1,14(a1)
 710:	li	a3,2
 714:	li	a2,0
 718:	jal	8cc <_lseek_r>
 71c:	lh	a5,12(s0)
 720:	j	6d0 <__swrite+0x34>

Disassembly of section .text.__sseek:

00000724 <__sseek>:
 724:	add	sp,sp,-16
 728:	sw	s0,8(sp)
 72c:	mv	s0,a1
 730:	lh	a1,14(a1)
 734:	sw	ra,12(sp)
 738:	jal	8cc <_lseek_r>
 73c:	li	a5,-1
 740:	beq	a0,a5,770 <__sseek+0x4c>
 744:	lhu	a5,12(s0)
 748:	lui	a4,0x1
 74c:	lw	ra,12(sp)
 750:	or	a5,a5,a4
 754:	sll	a5,a5,0x10
 758:	sra	a5,a5,0x10
 75c:	sw	a0,80(s0)
 760:	sh	a5,12(s0)
 764:	lw	s0,8(sp)
 768:	add	sp,sp,16
 76c:	ret
 770:	lhu	a5,12(s0)
 774:	lui	a4,0xfffff
 778:	add	a4,a4,-1 # ffffefff <__sp+0xfffeefff>
 77c:	and	a5,a5,a4
 780:	sll	a5,a5,0x10
 784:	sra	a5,a5,0x10
 788:	lw	ra,12(sp)
 78c:	sh	a5,12(s0)
 790:	lw	s0,8(sp)
 794:	add	sp,sp,16
 798:	ret

Disassembly of section .text.__sclose:

0000079c <__sclose>:
 79c:	lh	a1,14(a1)
 7a0:	j	7a4 <_close_r>

Disassembly of section .text._close_r:

000007a4 <_close_r>:
 7a4:	add	sp,sp,-16
 7a8:	sw	s0,8(sp)
 7ac:	sw	s1,4(sp)
 7b0:	mv	s0,a0
 7b4:	lui	s1,0x2
 7b8:	mv	a0,a1
 7bc:	sw	ra,12(sp)
 7c0:	sw	zero,1612(s1) # 264c <errno>
 7c4:	jal	1dcc <_close>
 7c8:	li	a5,-1
 7cc:	beq	a0,a5,7e4 <_close_r+0x40>
 7d0:	lw	ra,12(sp)
 7d4:	lw	s0,8(sp)
 7d8:	lw	s1,4(sp)
 7dc:	add	sp,sp,16
 7e0:	ret
 7e4:	lw	a5,1612(s1)
 7e8:	beqz	a5,7d0 <_close_r+0x2c>
 7ec:	lw	ra,12(sp)
 7f0:	sw	a5,0(s0)
 7f4:	lw	s0,8(sp)
 7f8:	lw	s1,4(sp)
 7fc:	add	sp,sp,16
 800:	ret

Disassembly of section .text._reclaim_reent:

00000804 <_reclaim_reent>:
 804:	lui	a5,0x2
 808:	lw	a5,1252(a5) # 24e4 <_impure_ptr>
 80c:	beq	a5,a0,8c8 <_reclaim_reent+0xc4>
 810:	lw	a1,68(a0)
 814:	add	sp,sp,-32
 818:	sw	s1,20(sp)
 81c:	sw	ra,28(sp)
 820:	mv	s1,a0
 824:	beqz	a1,87c <_reclaim_reent+0x78>
 828:	sw	s2,16(sp)
 82c:	sw	s3,12(sp)
 830:	sw	s0,24(sp)
 834:	li	s2,0
 838:	li	s3,128
 83c:	add	a5,a1,s2
 840:	lw	s0,0(a5)
 844:	beqz	s0,860 <_reclaim_reent+0x5c>
 848:	mv	a1,s0
 84c:	lw	s0,0(s0)
 850:	mv	a0,s1
 854:	jal	d44 <_free_r>
 858:	bnez	s0,848 <_reclaim_reent+0x44>
 85c:	lw	a1,68(s1)
 860:	add	s2,s2,4
 864:	bne	s2,s3,83c <_reclaim_reent+0x38>
 868:	mv	a0,s1
 86c:	jal	d44 <_free_r>
 870:	lw	s0,24(sp)
 874:	lw	s2,16(sp)
 878:	lw	s3,12(sp)
 87c:	lw	a1,56(s1)
 880:	beqz	a1,88c <_reclaim_reent+0x88>
 884:	mv	a0,s1
 888:	jal	d44 <_free_r>
 88c:	lw	a1,76(s1)
 890:	beqz	a1,89c <_reclaim_reent+0x98>
 894:	mv	a0,s1
 898:	jal	d44 <_free_r>
 89c:	lw	a5,52(s1)
 8a0:	beqz	a5,8b8 <_reclaim_reent+0xb4>
 8a4:	lw	ra,28(sp)
 8a8:	mv	a0,s1
 8ac:	lw	s1,20(sp)
 8b0:	add	sp,sp,32
 8b4:	jr	a5
 8b8:	lw	ra,28(sp)
 8bc:	lw	s1,20(sp)
 8c0:	add	sp,sp,32
 8c4:	ret
 8c8:	ret

Disassembly of section .text._lseek_r:

000008cc <_lseek_r>:
 8cc:	add	sp,sp,-16
 8d0:	mv	a4,a1
 8d4:	sw	s0,8(sp)
 8d8:	sw	s1,4(sp)
 8dc:	mv	a1,a2
 8e0:	mv	s0,a0
 8e4:	lui	s1,0x2
 8e8:	mv	a2,a3
 8ec:	mv	a0,a4
 8f0:	sw	ra,12(sp)
 8f4:	sw	zero,1612(s1) # 264c <errno>
 8f8:	jal	1e40 <_lseek>
 8fc:	li	a5,-1
 900:	beq	a0,a5,918 <_lseek_r+0x4c>
 904:	lw	ra,12(sp)
 908:	lw	s0,8(sp)
 90c:	lw	s1,4(sp)
 910:	add	sp,sp,16
 914:	ret
 918:	lw	a5,1612(s1)
 91c:	beqz	a5,904 <_lseek_r+0x38>
 920:	lw	ra,12(sp)
 924:	sw	a5,0(s0)
 928:	lw	s0,8(sp)
 92c:	lw	s1,4(sp)
 930:	add	sp,sp,16
 934:	ret

Disassembly of section .text._read_r:

00000938 <_read_r>:
 938:	add	sp,sp,-16
 93c:	mv	a4,a1
 940:	sw	s0,8(sp)
 944:	sw	s1,4(sp)
 948:	mv	a1,a2
 94c:	mv	s0,a0
 950:	lui	s1,0x2
 954:	mv	a2,a3
 958:	mv	a0,a4
 95c:	sw	ra,12(sp)
 960:	sw	zero,1612(s1) # 264c <errno>
 964:	jal	1e84 <_read>
 968:	li	a5,-1
 96c:	beq	a0,a5,984 <_read_r+0x4c>
 970:	lw	ra,12(sp)
 974:	lw	s0,8(sp)
 978:	lw	s1,4(sp)
 97c:	add	sp,sp,16
 980:	ret
 984:	lw	a5,1612(s1)
 988:	beqz	a5,970 <_read_r+0x38>
 98c:	lw	ra,12(sp)
 990:	sw	a5,0(s0)
 994:	lw	s0,8(sp)
 998:	lw	s1,4(sp)
 99c:	add	sp,sp,16
 9a0:	ret

Disassembly of section .text._write_r:

000009a4 <_write_r>:
 9a4:	add	sp,sp,-16
 9a8:	mv	a4,a1
 9ac:	sw	s0,8(sp)
 9b0:	sw	s1,4(sp)
 9b4:	mv	a1,a2
 9b8:	mv	s0,a0
 9bc:	lui	s1,0x2
 9c0:	mv	a2,a3
 9c4:	mv	a0,a4
 9c8:	sw	ra,12(sp)
 9cc:	sw	zero,1612(s1) # 264c <errno>
 9d0:	jal	1f44 <_write>
 9d4:	li	a5,-1
 9d8:	beq	a0,a5,9f0 <__global_pointer$+0x3c>
 9dc:	lw	ra,12(sp)
 9e0:	lw	s0,8(sp)
 9e4:	lw	s1,4(sp)
 9e8:	add	sp,sp,16
 9ec:	ret
 9f0:	lw	a5,1612(s1)
 9f4:	beqz	a5,9dc <__global_pointer$+0x28>
 9f8:	lw	ra,12(sp)
 9fc:	sw	a5,0(s0)
 a00:	lw	s0,8(sp)
 a04:	lw	s1,4(sp)
 a08:	add	sp,sp,16
 a0c:	ret

Disassembly of section .text.__libc_init_array:

00000a10 <__libc_init_array>:
 a10:	add	sp,sp,-16
 a14:	sw	s0,8(sp)
 a18:	sw	s2,0(sp)
 a1c:	li	a5,0
 a20:	li	a4,0
 a24:	sw	ra,12(sp)
 a28:	sw	s1,4(sp)
 a2c:	sub	s2,a5,a4
 a30:	beq	a5,a4,a54 <__libc_init_array+0x44>
 a34:	sra	s2,s2,0x2
 a38:	li	s0,0
 a3c:	li	s1,0
 a40:	lw	a5,0(s0)
 a44:	add	s1,s1,1
 a48:	add	s0,s0,4
 a4c:	jalr	a5
 a50:	bltu	s1,s2,a40 <__libc_init_array+0x30>
 a54:	li	a5,0
 a58:	li	a4,0
 a5c:	sub	s2,a5,a4
 a60:	sra	s2,s2,0x2
 a64:	beq	a5,a4,a84 <__libc_init_array+0x74>
 a68:	li	s0,0
 a6c:	li	s1,0
 a70:	lw	a5,0(s0)
 a74:	add	s1,s1,1
 a78:	add	s0,s0,4
 a7c:	jalr	a5
 a80:	bltu	s1,s2,a70 <__libc_init_array+0x60>
 a84:	lw	ra,12(sp)
 a88:	lw	s0,8(sp)
 a8c:	lw	s1,4(sp)
 a90:	lw	s2,0(sp)
 a94:	add	sp,sp,16
 a98:	ret

Disassembly of section .text.startup.register_fini:

00000a9c <register_fini>:
 a9c:	li	a5,0
 aa0:	beqz	a5,ab0 <register_fini+0x14>
 aa4:	lui	a0,0x2
 aa8:	add	a0,a0,-808 # 1cd8 <__libc_fini_array>
 aac:	j	bec <atexit>
 ab0:	ret

Disassembly of section .text.__call_exitprocs:

00000ab4 <__call_exitprocs>:
 ab4:	add	sp,sp,-48
 ab8:	sw	s4,24(sp)
 abc:	lui	s4,0x2
 ac0:	sw	s2,32(sp)
 ac4:	lw	s2,1616(s4) # 2650 <__atexit>
 ac8:	sw	ra,44(sp)
 acc:	beqz	s2,b7c <__call_exitprocs+0xc8>
 ad0:	sw	s3,28(sp)
 ad4:	sw	s5,20(sp)
 ad8:	sw	s6,16(sp)
 adc:	sw	s7,12(sp)
 ae0:	sw	s0,40(sp)
 ae4:	sw	s1,36(sp)
 ae8:	sw	s8,8(sp)
 aec:	mv	s6,a0
 af0:	mv	s7,a1
 af4:	li	s3,-1
 af8:	li	s5,1
 afc:	lw	s1,4(s2)
 b00:	add	s0,s1,-1
 b04:	bltz	s0,b60 <__call_exitprocs+0xac>
 b08:	sll	s1,s1,0x2
 b0c:	add	s1,s2,s1
 b10:	bnez	s7,b90 <__call_exitprocs+0xdc>
 b14:	lw	a5,4(s2)
 b18:	lw	a3,4(s1)
 b1c:	add	a5,a5,-1
 b20:	beq	a5,s0,bd8 <__call_exitprocs+0x124>
 b24:	sw	zero,4(s1)
 b28:	beqz	a3,b54 <__call_exitprocs+0xa0>
 b2c:	lw	a5,392(s2)
 b30:	sll	a4,s5,s0
 b34:	lw	s8,4(s2)
 b38:	and	a5,a4,a5
 b3c:	bnez	a5,ba8 <__call_exitprocs+0xf4>
 b40:	jalr	a3
 b44:	lw	a4,4(s2)
 b48:	lw	a5,1616(s4)
 b4c:	bne	a4,s8,bcc <__call_exitprocs+0x118>
 b50:	bne	a5,s2,bcc <__call_exitprocs+0x118>
 b54:	add	s0,s0,-1
 b58:	add	s1,s1,-4
 b5c:	bne	s0,s3,b10 <__call_exitprocs+0x5c>
 b60:	lw	s0,40(sp)
 b64:	lw	s1,36(sp)
 b68:	lw	s3,28(sp)
 b6c:	lw	s5,20(sp)
 b70:	lw	s6,16(sp)
 b74:	lw	s7,12(sp)
 b78:	lw	s8,8(sp)
 b7c:	lw	ra,44(sp)
 b80:	lw	s2,32(sp)
 b84:	lw	s4,24(sp)
 b88:	add	sp,sp,48
 b8c:	ret
 b90:	lw	a5,260(s1)
 b94:	beq	a5,s7,b14 <__call_exitprocs+0x60>
 b98:	add	s0,s0,-1
 b9c:	add	s1,s1,-4
 ba0:	bne	s0,s3,b90 <__call_exitprocs+0xdc>
 ba4:	j	b60 <__call_exitprocs+0xac>
 ba8:	lw	a5,396(s2)
 bac:	lw	a1,132(s1)
 bb0:	and	a4,a4,a5
 bb4:	bnez	a4,be0 <__call_exitprocs+0x12c>
 bb8:	mv	a0,s6
 bbc:	jalr	a3
 bc0:	lw	a4,4(s2)
 bc4:	lw	a5,1616(s4)
 bc8:	beq	a4,s8,b50 <__call_exitprocs+0x9c>
 bcc:	beqz	a5,b60 <__call_exitprocs+0xac>
 bd0:	mv	s2,a5
 bd4:	j	afc <__call_exitprocs+0x48>
 bd8:	sw	s0,4(s2)
 bdc:	j	b28 <__call_exitprocs+0x74>
 be0:	mv	a0,a1
 be4:	jalr	a3
 be8:	j	b44 <__call_exitprocs+0x90>

Disassembly of section .text.atexit:

00000bec <atexit>:
 bec:	mv	a1,a0
 bf0:	li	a3,0
 bf4:	li	a2,0
 bf8:	li	a0,0
 bfc:	j	1d2c <__register_exitproc>

Disassembly of section .text._malloc_trim_r:

00000c00 <_malloc_trim_r>:
 c00:	add	sp,sp,-32
 c04:	sw	s3,12(sp)
 c08:	lui	s3,0x2
 c0c:	sw	s0,24(sp)
 c10:	sw	s1,20(sp)
 c14:	sw	s2,16(sp)
 c18:	sw	s4,8(sp)
 c1c:	sw	ra,28(sp)
 c20:	mv	s4,a1
 c24:	mv	s2,a0
 c28:	add	s3,s3,200 # 20c8 <__malloc_av_>
 c2c:	jal	1824 <__malloc_lock>
 c30:	lw	a4,8(s3)
 c34:	lui	a5,0x1
 c38:	add	a5,a5,-17 # fef <_free_r+0x2ab>
 c3c:	lw	s1,4(a4)
 c40:	lui	a4,0x1
 c44:	and	s1,s1,-4
 c48:	add	s0,s1,a5
 c4c:	sub	s0,s0,s4
 c50:	srl	s0,s0,0xc
 c54:	add	s0,s0,-1
 c58:	sll	s0,s0,0xc
 c5c:	blt	s0,a4,c78 <_malloc_trim_r+0x78>
 c60:	li	a1,0
 c64:	mv	a0,s2
 c68:	jal	1c78 <_sbrk_r>
 c6c:	lw	a5,8(s3)
 c70:	add	a5,a5,s1
 c74:	beq	a0,a5,ca4 <_malloc_trim_r+0xa4>
 c78:	mv	a0,s2
 c7c:	jal	1828 <__malloc_unlock>
 c80:	lw	ra,28(sp)
 c84:	lw	s0,24(sp)
 c88:	lw	s1,20(sp)
 c8c:	lw	s2,16(sp)
 c90:	lw	s3,12(sp)
 c94:	lw	s4,8(sp)
 c98:	li	a0,0
 c9c:	add	sp,sp,32
 ca0:	ret
 ca4:	neg	a1,s0
 ca8:	mv	a0,s2
 cac:	jal	1c78 <_sbrk_r>
 cb0:	li	a5,-1
 cb4:	beq	a0,a5,d08 <_malloc_trim_r+0x108>
 cb8:	lui	a5,0x2
 cbc:	add	a5,a5,1620 # 2654 <__malloc_current_mallinfo>
 cc0:	lw	a4,0(a5)
 cc4:	lw	a3,8(s3)
 cc8:	sub	s1,s1,s0
 ccc:	or	s1,s1,1
 cd0:	sub	a4,a4,s0
 cd4:	mv	a0,s2
 cd8:	sw	s1,4(a3)
 cdc:	sw	a4,0(a5)
 ce0:	jal	1828 <__malloc_unlock>
 ce4:	lw	ra,28(sp)
 ce8:	lw	s0,24(sp)
 cec:	lw	s1,20(sp)
 cf0:	lw	s2,16(sp)
 cf4:	lw	s3,12(sp)
 cf8:	lw	s4,8(sp)
 cfc:	li	a0,1
 d00:	add	sp,sp,32
 d04:	ret
 d08:	li	a1,0
 d0c:	mv	a0,s2
 d10:	jal	1c78 <_sbrk_r>
 d14:	lw	a4,8(s3)
 d18:	li	a3,15
 d1c:	sub	a5,a0,a4
 d20:	bge	a3,a5,c78 <_malloc_trim_r+0x78>
 d24:	lui	a3,0x2
 d28:	lw	a3,1260(a3) # 24ec <__malloc_sbrk_base>
 d2c:	or	a5,a5,1
 d30:	sw	a5,4(a4) # 1004 <_free_r+0x2c0>
 d34:	sub	a0,a0,a3
 d38:	lui	a3,0x2
 d3c:	sw	a0,1620(a3) # 2654 <__malloc_current_mallinfo>
 d40:	j	c78 <_malloc_trim_r+0x78>

Disassembly of section .text._free_r:

00000d44 <_free_r>:
     d44:	beqz	a1,ec8 <_free_r+0x184>
     d48:	add	sp,sp,-16
     d4c:	sw	s0,8(sp)
     d50:	sw	s1,4(sp)
     d54:	mv	s0,a1
     d58:	mv	s1,a0
     d5c:	sw	ra,12(sp)
     d60:	jal	1824 <__malloc_lock>
     d64:	lw	a0,-4(s0)
     d68:	add	a4,s0,-8
     d6c:	lui	a1,0x2
     d70:	and	a5,a0,-2
     d74:	add	a2,a4,a5
     d78:	add	a1,a1,200 # 20c8 <__malloc_av_>
     d7c:	lw	a3,4(a2)
     d80:	lw	a6,8(a1)
     d84:	and	a3,a3,-4
     d88:	beq	a6,a2,f2c <_free_r+0x1e8>
     d8c:	sw	a3,4(a2)
     d90:	and	a0,a0,1
     d94:	add	a6,a2,a3
     d98:	bnez	a0,e38 <_free_r+0xf4>
     d9c:	lw	t1,-8(s0)
     da0:	lw	a6,4(a6)
     da4:	lui	a0,0x2
     da8:	sub	a4,a4,t1
     dac:	lw	a7,8(a4)
     db0:	add	a0,a0,208 # 20d0 <__malloc_av_+0x8>
     db4:	add	a5,a5,t1
     db8:	and	a6,a6,1
     dbc:	beq	a7,a0,f00 <_free_r+0x1bc>
     dc0:	lw	t1,12(a4)
     dc4:	sw	t1,12(a7)
     dc8:	sw	a7,8(t1) # cc <frame_dummy+0x20>
     dcc:	beqz	a6,f80 <_free_r+0x23c>
     dd0:	or	a3,a5,1
     dd4:	sw	a3,4(a4)
     dd8:	sw	a5,0(a2)
     ddc:	li	a3,511
     de0:	bltu	a3,a5,e58 <_free_r+0x114>
     de4:	and	a3,a5,-8
     de8:	add	a3,a3,8
     dec:	lw	a0,4(a1)
     df0:	add	a3,a1,a3
     df4:	lw	a2,0(a3)
     df8:	srl	a6,a5,0x5
     dfc:	li	a5,1
     e00:	sll	a5,a5,a6
     e04:	or	a5,a5,a0
     e08:	add	a0,a3,-8
     e0c:	sw	a0,12(a4)
     e10:	sw	a2,8(a4)
     e14:	sw	a5,4(a1)
     e18:	sw	a4,0(a3)
     e1c:	sw	a4,12(a2)
     e20:	lw	s0,8(sp)
     e24:	lw	ra,12(sp)
     e28:	mv	a0,s1
     e2c:	lw	s1,4(sp)
     e30:	add	sp,sp,16
     e34:	j	1828 <__malloc_unlock>
     e38:	lw	a0,4(a6)
     e3c:	and	a0,a0,1
     e40:	beqz	a0,ecc <_free_r+0x188>
     e44:	or	a3,a5,1
     e48:	sw	a3,-4(s0)
     e4c:	sw	a5,0(a2)
     e50:	li	a3,511
     e54:	bgeu	a3,a5,de4 <_free_r+0xa0>
     e58:	srl	a3,a5,0x9
     e5c:	li	a2,4
     e60:	bltu	a2,a3,f88 <_free_r+0x244>
     e64:	srl	a3,a5,0x6
     e68:	add	a0,a3,57
     e6c:	add	a2,a3,56
     e70:	sll	a0,a0,0x3
     e74:	add	a0,a1,a0
     e78:	lw	a3,0(a0)
     e7c:	add	a0,a0,-8
     e80:	bne	a0,a3,e90 <_free_r+0x14c>
     e84:	j	fe0 <_free_r+0x29c>
     e88:	lw	a3,8(a3)
     e8c:	beq	a0,a3,e9c <_free_r+0x158>
     e90:	lw	a2,4(a3)
     e94:	and	a2,a2,-4
     e98:	bltu	a5,a2,e88 <_free_r+0x144>
     e9c:	lw	a0,12(a3)
     ea0:	sw	a0,12(a4)
     ea4:	sw	a3,8(a4)
     ea8:	lw	s0,8(sp)
     eac:	sw	a4,8(a0)
     eb0:	lw	ra,12(sp)
     eb4:	mv	a0,s1
     eb8:	lw	s1,4(sp)
     ebc:	sw	a4,12(a3)
     ec0:	add	sp,sp,16
     ec4:	j	1828 <__malloc_unlock>
     ec8:	ret
     ecc:	lui	a0,0x2
     ed0:	add	a5,a5,a3
     ed4:	add	a0,a0,208 # 20d0 <__malloc_av_+0x8>
     ed8:	lw	a3,8(a2)
     edc:	beq	a3,a0,fbc <_free_r+0x278>
     ee0:	lw	a6,12(a2)
     ee4:	or	a0,a5,1
     ee8:	add	a2,a4,a5
     eec:	sw	a6,12(a3)
     ef0:	sw	a3,8(a6)
     ef4:	sw	a0,4(a4)
     ef8:	sw	a5,0(a2)
     efc:	j	ddc <_free_r+0x98>
     f00:	bnez	a6,1040 <_free_r+0x2fc>
     f04:	lw	a1,8(a2)
     f08:	lw	a2,12(a2)
     f0c:	add	a3,a3,a5
     f10:	or	a5,a3,1
     f14:	sw	a2,12(a1)
     f18:	sw	a1,8(a2)
     f1c:	sw	a5,4(a4)
     f20:	add	a4,a4,a3
     f24:	sw	a3,0(a4)
     f28:	j	e20 <_free_r+0xdc>
     f2c:	and	a0,a0,1
     f30:	add	a3,a5,a3
     f34:	bnez	a0,f54 <_free_r+0x210>
     f38:	lw	a0,-8(s0)
     f3c:	sub	a4,a4,a0
     f40:	lw	a5,12(a4)
     f44:	lw	a2,8(a4)
     f48:	add	a3,a3,a0
     f4c:	sw	a5,12(a2)
     f50:	sw	a2,8(a5)
     f54:	lui	a5,0x2
     f58:	or	a2,a3,1
     f5c:	lw	a5,1264(a5) # 24f0 <__malloc_trim_threshold>
     f60:	sw	a2,4(a4)
     f64:	sw	a4,8(a1)
     f68:	bltu	a3,a5,e20 <_free_r+0xdc>
     f6c:	lui	a5,0x2
     f70:	lw	a1,1668(a5) # 2684 <__malloc_top_pad>
     f74:	mv	a0,s1
     f78:	jal	c00 <_malloc_trim_r>
     f7c:	j	e20 <_free_r+0xdc>
     f80:	add	a5,a5,a3
     f84:	j	ed8 <_free_r+0x194>
     f88:	li	a2,20
     f8c:	bgeu	a2,a3,fac <_free_r+0x268>
     f90:	li	a2,84
     f94:	bltu	a2,a3,ffc <_free_r+0x2b8>
     f98:	srl	a3,a5,0xc
     f9c:	add	a0,a3,111
     fa0:	add	a2,a3,110
     fa4:	sll	a0,a0,0x3
     fa8:	j	e74 <_free_r+0x130>
     fac:	add	a0,a3,92
     fb0:	add	a2,a3,91
     fb4:	sll	a0,a0,0x3
     fb8:	j	e74 <_free_r+0x130>
     fbc:	sw	a4,20(a1)
     fc0:	sw	a4,16(a1)
     fc4:	or	a3,a5,1
     fc8:	sw	a0,12(a4)
     fcc:	sw	a0,8(a4)
     fd0:	sw	a3,4(a4)
     fd4:	add	a4,a4,a5
     fd8:	sw	a5,0(a4)
     fdc:	j	e20 <_free_r+0xdc>
     fe0:	lw	a6,4(a1)
     fe4:	sra	a2,a2,0x2
     fe8:	li	a5,1
     fec:	sll	a5,a5,a2
     ff0:	or	a5,a5,a6
     ff4:	sw	a5,4(a1)
     ff8:	j	ea0 <_free_r+0x15c>
     ffc:	li	a2,340
    1000:	bltu	a2,a3,1018 <_free_r+0x2d4>
    1004:	srl	a3,a5,0xf
    1008:	add	a0,a3,120
    100c:	add	a2,a3,119
    1010:	sll	a0,a0,0x3
    1014:	j	e74 <_free_r+0x130>
    1018:	li	a2,1364
    101c:	bltu	a2,a3,1034 <_free_r+0x2f0>
    1020:	srl	a3,a5,0x12
    1024:	add	a0,a3,125
    1028:	add	a2,a3,124
    102c:	sll	a0,a0,0x3
    1030:	j	e74 <_free_r+0x130>
    1034:	li	a0,1016
    1038:	li	a2,126
    103c:	j	e74 <_free_r+0x130>
    1040:	or	a3,a5,1
    1044:	sw	a3,4(a4)
    1048:	sw	a5,0(a2)
    104c:	j	e20 <_free_r+0xdc>

Disassembly of section .text._malloc_r:

00001050 <_malloc_r>:
    1050:	add	sp,sp,-48
    1054:	sw	s3,28(sp)
    1058:	sw	ra,44(sp)
    105c:	sw	s0,40(sp)
    1060:	sw	s1,36(sp)
    1064:	sw	s2,32(sp)
    1068:	add	a5,a1,11
    106c:	li	a4,22
    1070:	mv	s3,a0
    1074:	bltu	a4,a5,10f8 <_malloc_r+0xa8>
    1078:	li	a5,16
    107c:	bltu	a5,a1,1288 <_malloc_r+0x238>
    1080:	jal	1824 <__malloc_lock>
    1084:	li	a5,24
    1088:	li	a1,2
    108c:	li	s1,16
    1090:	lui	s2,0x2
    1094:	add	s2,s2,200 # 20c8 <__malloc_av_>
    1098:	add	a5,s2,a5
    109c:	lw	s0,4(a5)
    10a0:	add	a4,a5,-8
    10a4:	beq	s0,a4,1400 <_malloc_r+0x3b0>
    10a8:	lw	a5,4(s0)
    10ac:	lw	a3,12(s0)
    10b0:	lw	a2,8(s0)
    10b4:	and	a5,a5,-4
    10b8:	add	a5,s0,a5
    10bc:	lw	a4,4(a5)
    10c0:	sw	a3,12(a2)
    10c4:	sw	a2,8(a3)
    10c8:	or	a4,a4,1
    10cc:	mv	a0,s3
    10d0:	sw	a4,4(a5)
    10d4:	jal	1828 <__malloc_unlock>
    10d8:	add	a0,s0,8
    10dc:	lw	ra,44(sp)
    10e0:	lw	s0,40(sp)
    10e4:	lw	s1,36(sp)
    10e8:	lw	s2,32(sp)
    10ec:	lw	s3,28(sp)
    10f0:	add	sp,sp,48
    10f4:	ret
    10f8:	and	s1,a5,-8
    10fc:	bltz	a5,1288 <_malloc_r+0x238>
    1100:	bltu	s1,a1,1288 <_malloc_r+0x238>
    1104:	jal	1824 <__malloc_lock>
    1108:	li	a5,503
    110c:	bgeu	a5,s1,1514 <_malloc_r+0x4c4>
    1110:	srl	a5,s1,0x9
    1114:	beqz	a5,1298 <_malloc_r+0x248>
    1118:	li	a4,4
    111c:	bltu	a4,a5,1470 <_malloc_r+0x420>
    1120:	srl	a5,s1,0x6
    1124:	add	a1,a5,57
    1128:	add	a6,a5,56
    112c:	sll	a2,a1,0x3
    1130:	lui	s2,0x2
    1134:	add	s2,s2,200 # 20c8 <__malloc_av_>
    1138:	add	a2,s2,a2
    113c:	lw	s0,4(a2)
    1140:	add	a2,a2,-8
    1144:	beq	a2,s0,1174 <_malloc_r+0x124>
    1148:	li	a0,15
    114c:	j	1160 <_malloc_r+0x110>
    1150:	lw	a3,12(s0)
    1154:	bgez	a4,13f8 <_malloc_r+0x3a8>
    1158:	beq	a2,a3,1174 <_malloc_r+0x124>
    115c:	mv	s0,a3
    1160:	lw	a5,4(s0)
    1164:	and	a5,a5,-4
    1168:	sub	a4,a5,s1
    116c:	bge	a0,a4,1150 <_malloc_r+0x100>
    1170:	mv	a1,a6
    1174:	lw	s0,16(s2)
    1178:	lui	a6,0x2
    117c:	add	a6,a6,208 # 20d0 <__malloc_av_+0x8>
    1180:	beq	s0,a6,13f0 <_malloc_r+0x3a0>
    1184:	lw	a5,4(s0)
    1188:	li	a3,15
    118c:	and	a5,a5,-4
    1190:	sub	a4,a5,s1
    1194:	blt	a3,a4,1520 <_malloc_r+0x4d0>
    1198:	sw	a6,20(s2)
    119c:	sw	a6,16(s2)
    11a0:	bgez	a4,14f4 <_malloc_r+0x4a4>
    11a4:	li	a4,511
    11a8:	lw	a0,4(s2)
    11ac:	bltu	a4,a5,1410 <_malloc_r+0x3c0>
    11b0:	and	a4,a5,-8
    11b4:	add	a4,a4,8
    11b8:	add	a4,s2,a4
    11bc:	lw	a3,0(a4)
    11c0:	srl	a2,a5,0x5
    11c4:	li	a5,1
    11c8:	sll	a5,a5,a2
    11cc:	or	a0,a0,a5
    11d0:	add	a5,a4,-8
    11d4:	sw	a5,12(s0)
    11d8:	sw	a3,8(s0)
    11dc:	sw	a0,4(s2)
    11e0:	sw	s0,0(a4)
    11e4:	sw	s0,12(a3)
    11e8:	sra	a5,a1,0x2
    11ec:	li	a2,1
    11f0:	sll	a2,a2,a5
    11f4:	bltu	a0,a2,12a8 <_malloc_r+0x258>
    11f8:	and	a5,a2,a0
    11fc:	bnez	a5,1224 <_malloc_r+0x1d4>
    1200:	sll	a2,a2,0x1
    1204:	and	a1,a1,-4
    1208:	and	a5,a2,a0
    120c:	add	a1,a1,4
    1210:	bnez	a5,1224 <_malloc_r+0x1d4>
    1214:	sll	a2,a2,0x1
    1218:	and	a5,a2,a0
    121c:	add	a1,a1,4
    1220:	beqz	a5,1214 <_malloc_r+0x1c4>
    1224:	li	a7,15
    1228:	sll	t1,a1,0x3
    122c:	add	t1,s2,t1
    1230:	mv	a0,t1
    1234:	lw	a5,12(a0)
    1238:	mv	t3,a1
    123c:	beq	a0,a5,1494 <_malloc_r+0x444>
    1240:	lw	a4,4(a5)
    1244:	mv	s0,a5
    1248:	lw	a5,12(a5)
    124c:	and	a4,a4,-4
    1250:	sub	a3,a4,s1
    1254:	blt	a7,a3,14ac <_malloc_r+0x45c>
    1258:	bltz	a3,123c <_malloc_r+0x1ec>
    125c:	add	a4,s0,a4
    1260:	lw	a3,4(a4)
    1264:	lw	a2,8(s0)
    1268:	mv	a0,s3
    126c:	or	a3,a3,1
    1270:	sw	a3,4(a4)
    1274:	sw	a5,12(a2)
    1278:	sw	a2,8(a5)
    127c:	jal	1828 <__malloc_unlock>
    1280:	add	a0,s0,8
    1284:	j	10dc <_malloc_r+0x8c>
    1288:	li	a5,12
    128c:	sw	a5,0(s3)
    1290:	li	a0,0
    1294:	j	10dc <_malloc_r+0x8c>
    1298:	li	a2,512
    129c:	li	a1,64
    12a0:	li	a6,63
    12a4:	j	1130 <_malloc_r+0xe0>
    12a8:	lw	s0,8(s2)
    12ac:	sw	s6,16(sp)
    12b0:	lw	a5,4(s0)
    12b4:	and	s6,a5,-4
    12b8:	bltu	s6,s1,12c8 <_malloc_r+0x278>
    12bc:	sub	a4,s6,s1
    12c0:	li	a5,15
    12c4:	blt	a5,a4,13ac <_malloc_r+0x35c>
    12c8:	lui	a5,0x2
    12cc:	sw	s9,4(sp)
    12d0:	lui	s9,0x2
    12d4:	sw	s5,20(sp)
    12d8:	lw	a4,1260(s9) # 24ec <__malloc_sbrk_base>
    12dc:	lw	s5,1668(a5) # 2684 <__malloc_top_pad>
    12e0:	sw	s4,24(sp)
    12e4:	sw	s7,12(sp)
    12e8:	li	a5,-1
    12ec:	add	s4,s0,s6
    12f0:	add	s5,s1,s5
    12f4:	beq	a4,a5,16d0 <_malloc_r+0x680>
    12f8:	lui	a5,0x1
    12fc:	add	a5,a5,15 # 100f <_free_r+0x2cb>
    1300:	add	s5,s5,a5
    1304:	lui	a5,0xfffff
    1308:	and	s5,s5,a5
    130c:	mv	a1,s5
    1310:	mv	a0,s3
    1314:	jal	1c78 <_sbrk_r>
    1318:	li	a5,-1
    131c:	mv	s7,a0
    1320:	beq	a0,a5,1784 <_malloc_r+0x734>
    1324:	sw	s8,8(sp)
    1328:	bltu	a0,s4,1570 <_malloc_r+0x520>
    132c:	lui	s8,0x2
    1330:	add	s8,s8,1620 # 2654 <__malloc_current_mallinfo>
    1334:	lw	a1,0(s8)
    1338:	add	a1,s5,a1
    133c:	sw	a1,0(s8)
    1340:	mv	a4,a1
    1344:	bne	s4,a0,15fc <_malloc_r+0x5ac>
    1348:	sll	a5,a0,0x14
    134c:	bnez	a5,15fc <_malloc_r+0x5ac>
    1350:	lw	s7,8(s2)
    1354:	add	a5,s6,s5
    1358:	or	a5,a5,1
    135c:	sw	a5,4(s7)
    1360:	lui	a4,0x2
    1364:	lw	a3,1664(a4) # 2680 <__malloc_max_sbrked_mem>
    1368:	bgeu	a3,a1,1370 <_malloc_r+0x320>
    136c:	sw	a1,1664(a4)
    1370:	lui	a4,0x2
    1374:	lw	a3,1660(a4) # 267c <__malloc_max_total_mem>
    1378:	bgeu	a3,a1,1380 <_malloc_r+0x330>
    137c:	sw	a1,1660(a4)
    1380:	lw	s8,8(sp)
    1384:	mv	s0,s7
    1388:	and	a5,a5,-4
    138c:	sub	a4,a5,s1
    1390:	bltu	a5,s1,1728 <_malloc_r+0x6d8>
    1394:	li	a5,15
    1398:	bge	a5,a4,1728 <_malloc_r+0x6d8>
    139c:	lw	s4,24(sp)
    13a0:	lw	s5,20(sp)
    13a4:	lw	s7,12(sp)
    13a8:	lw	s9,4(sp)
    13ac:	or	a5,s1,1
    13b0:	sw	a5,4(s0)
    13b4:	add	s1,s0,s1
    13b8:	sw	s1,8(s2)
    13bc:	or	a4,a4,1
    13c0:	mv	a0,s3
    13c4:	sw	a4,4(s1)
    13c8:	jal	1828 <__malloc_unlock>
    13cc:	lw	ra,44(sp)
    13d0:	add	a0,s0,8
    13d4:	lw	s0,40(sp)
    13d8:	lw	s6,16(sp)
    13dc:	lw	s1,36(sp)
    13e0:	lw	s2,32(sp)
    13e4:	lw	s3,28(sp)
    13e8:	add	sp,sp,48
    13ec:	ret
    13f0:	lw	a0,4(s2)
    13f4:	j	11e8 <_malloc_r+0x198>
    13f8:	lw	a2,8(s0)
    13fc:	j	10b8 <_malloc_r+0x68>
    1400:	lw	s0,12(a5) # fffff00c <__sp+0xfffef00c>
    1404:	add	a1,a1,2
    1408:	beq	a5,s0,1174 <_malloc_r+0x124>
    140c:	j	10a8 <_malloc_r+0x58>
    1410:	srl	a4,a5,0x9
    1414:	li	a3,4
    1418:	bgeu	a3,a4,155c <_malloc_r+0x50c>
    141c:	li	a3,20
    1420:	bltu	a3,a4,174c <_malloc_r+0x6fc>
    1424:	add	a2,a4,92
    1428:	add	a3,a4,91
    142c:	sll	a2,a2,0x3
    1430:	add	a2,s2,a2
    1434:	lw	a4,0(a2)
    1438:	add	a2,a2,-8
    143c:	bne	a2,a4,144c <_malloc_r+0x3fc>
    1440:	j	16d8 <_malloc_r+0x688>
    1444:	lw	a4,8(a4)
    1448:	beq	a2,a4,1458 <_malloc_r+0x408>
    144c:	lw	a3,4(a4)
    1450:	and	a3,a3,-4
    1454:	bltu	a5,a3,1444 <_malloc_r+0x3f4>
    1458:	lw	a2,12(a4)
    145c:	sw	a2,12(s0)
    1460:	sw	a4,8(s0)
    1464:	sw	s0,8(a2)
    1468:	sw	s0,12(a4)
    146c:	j	11e8 <_malloc_r+0x198>
    1470:	li	a4,20
    1474:	bgeu	a4,a5,1584 <_malloc_r+0x534>
    1478:	li	a4,84
    147c:	bltu	a4,a5,1768 <_malloc_r+0x718>
    1480:	srl	a5,s1,0xc
    1484:	add	a1,a5,111
    1488:	add	a6,a5,110
    148c:	sll	a2,a1,0x3
    1490:	j	1130 <_malloc_r+0xe0>
    1494:	add	t3,t3,1
    1498:	and	a5,t3,3
    149c:	add	a0,a0,8
    14a0:	beqz	a5,15a0 <_malloc_r+0x550>
    14a4:	lw	a5,12(a0)
    14a8:	j	123c <_malloc_r+0x1ec>
    14ac:	lw	a2,8(s0)
    14b0:	or	a1,s1,1
    14b4:	sw	a1,4(s0)
    14b8:	sw	a5,12(a2)
    14bc:	sw	a2,8(a5)
    14c0:	add	s1,s0,s1
    14c4:	sw	s1,20(s2)
    14c8:	sw	s1,16(s2)
    14cc:	or	a5,a3,1
    14d0:	sw	a6,12(s1)
    14d4:	sw	a6,8(s1)
    14d8:	sw	a5,4(s1)
    14dc:	add	a4,s0,a4
    14e0:	mv	a0,s3
    14e4:	sw	a3,0(a4)
    14e8:	jal	1828 <__malloc_unlock>
    14ec:	add	a0,s0,8
    14f0:	j	10dc <_malloc_r+0x8c>
    14f4:	add	a5,s0,a5
    14f8:	lw	a4,4(a5)
    14fc:	mv	a0,s3
    1500:	or	a4,a4,1
    1504:	sw	a4,4(a5)
    1508:	jal	1828 <__malloc_unlock>
    150c:	add	a0,s0,8
    1510:	j	10dc <_malloc_r+0x8c>
    1514:	srl	a1,s1,0x3
    1518:	add	a5,s1,8
    151c:	j	1090 <_malloc_r+0x40>
    1520:	or	a3,s1,1
    1524:	sw	a3,4(s0)
    1528:	add	s1,s0,s1
    152c:	sw	s1,20(s2)
    1530:	sw	s1,16(s2)
    1534:	or	a3,a4,1
    1538:	sw	a6,12(s1)
    153c:	sw	a6,8(s1)
    1540:	sw	a3,4(s1)
    1544:	add	a5,s0,a5
    1548:	mv	a0,s3
    154c:	sw	a4,0(a5)
    1550:	jal	1828 <__malloc_unlock>
    1554:	add	a0,s0,8
    1558:	j	10dc <_malloc_r+0x8c>
    155c:	srl	a4,a5,0x6
    1560:	add	a2,a4,57
    1564:	add	a3,a4,56
    1568:	sll	a2,a2,0x3
    156c:	j	1430 <_malloc_r+0x3e0>
    1570:	beq	s0,s2,15e8 <_malloc_r+0x598>
    1574:	lw	s0,8(s2)
    1578:	lw	s8,8(sp)
    157c:	lw	a5,4(s0)
    1580:	j	1388 <_malloc_r+0x338>
    1584:	add	a1,a5,92
    1588:	add	a6,a5,91
    158c:	sll	a2,a1,0x3
    1590:	j	1130 <_malloc_r+0xe0>
    1594:	lw	a5,8(t1)
    1598:	add	a1,a1,-1
    159c:	bne	a5,t1,181c <_malloc_r+0x7cc>
    15a0:	and	a5,a1,3
    15a4:	add	t1,t1,-8
    15a8:	bnez	a5,1594 <_malloc_r+0x544>
    15ac:	lw	a4,4(s2)
    15b0:	not	a5,a2
    15b4:	and	a5,a5,a4
    15b8:	sw	a5,4(s2)
    15bc:	sll	a2,a2,0x1
    15c0:	bltu	a5,a2,12a8 <_malloc_r+0x258>
    15c4:	beqz	a2,12a8 <_malloc_r+0x258>
    15c8:	and	a4,a2,a5
    15cc:	bnez	a4,15e0 <_malloc_r+0x590>
    15d0:	sll	a2,a2,0x1
    15d4:	and	a4,a2,a5
    15d8:	add	t3,t3,4
    15dc:	beqz	a4,15d0 <_malloc_r+0x580>
    15e0:	mv	a1,t3
    15e4:	j	1228 <_malloc_r+0x1d8>
    15e8:	lui	s8,0x2
    15ec:	add	s8,s8,1620 # 2654 <__malloc_current_mallinfo>
    15f0:	lw	a4,0(s8)
    15f4:	add	a4,s5,a4
    15f8:	sw	a4,0(s8)
    15fc:	lw	a3,1260(s9)
    1600:	li	a5,-1
    1604:	beq	a3,a5,1790 <_malloc_r+0x740>
    1608:	sub	a5,s7,s4
    160c:	add	a5,a5,a4
    1610:	sw	a5,0(s8)
    1614:	and	s9,s7,7
    1618:	beqz	s9,16f0 <_malloc_r+0x6a0>
    161c:	sub	s7,s7,s9
    1620:	lui	a5,0x1
    1624:	add	a5,a5,8 # 1008 <_free_r+0x2c4>
    1628:	add	s7,s7,8
    162c:	sub	a1,a5,s9
    1630:	add	s5,s7,s5
    1634:	sub	a1,a1,s5
    1638:	sll	a1,a1,0x14
    163c:	srl	s4,a1,0x14
    1640:	mv	a1,s4
    1644:	mv	a0,s3
    1648:	jal	1c78 <_sbrk_r>
    164c:	li	a5,-1
    1650:	beq	a0,a5,17d0 <_malloc_r+0x780>
    1654:	sub	a0,a0,s7
    1658:	add	s5,a0,s4
    165c:	lw	a4,0(s8)
    1660:	sw	s7,8(s2)
    1664:	or	a5,s5,1
    1668:	add	a1,s4,a4
    166c:	sw	a1,0(s8)
    1670:	sw	a5,4(s7)
    1674:	beq	s0,s2,1360 <_malloc_r+0x310>
    1678:	li	a3,15
    167c:	bgeu	a3,s6,171c <_malloc_r+0x6cc>
    1680:	lw	a4,4(s0)
    1684:	add	a5,s6,-12
    1688:	and	a5,a5,-8
    168c:	and	a4,a4,1
    1690:	or	a4,a4,a5
    1694:	sw	a4,4(s0)
    1698:	li	a2,5
    169c:	add	a4,s0,a5
    16a0:	sw	a2,4(a4)
    16a4:	sw	a2,8(a4)
    16a8:	bltu	a3,a5,16b4 <_malloc_r+0x664>
    16ac:	lw	a5,4(s7)
    16b0:	j	1360 <_malloc_r+0x310>
    16b4:	add	a1,s0,8
    16b8:	mv	a0,s3
    16bc:	jal	d44 <_free_r>
    16c0:	lw	s7,8(s2)
    16c4:	lw	a1,0(s8)
    16c8:	lw	a5,4(s7)
    16cc:	j	1360 <_malloc_r+0x310>
    16d0:	add	s5,s5,16
    16d4:	j	130c <_malloc_r+0x2bc>
    16d8:	sra	a3,a3,0x2
    16dc:	li	a5,1
    16e0:	sll	a5,a5,a3
    16e4:	or	a0,a0,a5
    16e8:	sw	a0,4(s2)
    16ec:	j	145c <_malloc_r+0x40c>
    16f0:	add	a1,s7,s5
    16f4:	neg	a1,a1
    16f8:	sll	a1,a1,0x14
    16fc:	srl	s4,a1,0x14
    1700:	mv	a1,s4
    1704:	mv	a0,s3
    1708:	jal	1c78 <_sbrk_r>
    170c:	li	a5,-1
    1710:	bne	a0,a5,1654 <_malloc_r+0x604>
    1714:	li	s4,0
    1718:	j	165c <_malloc_r+0x60c>
    171c:	lw	s8,8(sp)
    1720:	li	a5,1
    1724:	sw	a5,4(s7)
    1728:	mv	a0,s3
    172c:	jal	1828 <__malloc_unlock>
    1730:	li	a0,0
    1734:	lw	s4,24(sp)
    1738:	lw	s5,20(sp)
    173c:	lw	s6,16(sp)
    1740:	lw	s7,12(sp)
    1744:	lw	s9,4(sp)
    1748:	j	10dc <_malloc_r+0x8c>
    174c:	li	a3,84
    1750:	bltu	a3,a4,1798 <_malloc_r+0x748>
    1754:	srl	a4,a5,0xc
    1758:	add	a2,a4,111
    175c:	add	a3,a4,110
    1760:	sll	a2,a2,0x3
    1764:	j	1430 <_malloc_r+0x3e0>
    1768:	li	a4,340
    176c:	bltu	a4,a5,17b4 <_malloc_r+0x764>
    1770:	srl	a5,s1,0xf
    1774:	add	a1,a5,120
    1778:	add	a6,a5,119
    177c:	sll	a2,a1,0x3
    1780:	j	1130 <_malloc_r+0xe0>
    1784:	lw	s0,8(s2)
    1788:	lw	a5,4(s0)
    178c:	j	1388 <_malloc_r+0x338>
    1790:	sw	s7,1260(s9)
    1794:	j	1614 <_malloc_r+0x5c4>
    1798:	li	a3,340
    179c:	bltu	a3,a4,17e4 <_malloc_r+0x794>
    17a0:	srl	a4,a5,0xf
    17a4:	add	a2,a4,120
    17a8:	add	a3,a4,119
    17ac:	sll	a2,a2,0x3
    17b0:	j	1430 <_malloc_r+0x3e0>
    17b4:	li	a4,1364
    17b8:	bltu	a4,a5,1800 <_malloc_r+0x7b0>
    17bc:	srl	a5,s1,0x12
    17c0:	add	a1,a5,125
    17c4:	add	a6,a5,124
    17c8:	sll	a2,a1,0x3
    17cc:	j	1130 <_malloc_r+0xe0>
    17d0:	add	s9,s9,-8
    17d4:	add	s5,s5,s9
    17d8:	sub	s5,s5,s7
    17dc:	li	s4,0
    17e0:	j	165c <_malloc_r+0x60c>
    17e4:	li	a3,1364
    17e8:	bltu	a3,a4,1810 <_malloc_r+0x7c0>
    17ec:	srl	a4,a5,0x12
    17f0:	add	a2,a4,125
    17f4:	add	a3,a4,124
    17f8:	sll	a2,a2,0x3
    17fc:	j	1430 <_malloc_r+0x3e0>
    1800:	li	a2,1016
    1804:	li	a1,127
    1808:	li	a6,126
    180c:	j	1130 <_malloc_r+0xe0>
    1810:	li	a2,1016
    1814:	li	a3,126
    1818:	j	1430 <_malloc_r+0x3e0>
    181c:	lw	a5,4(s2)
    1820:	j	15bc <_malloc_r+0x56c>

Disassembly of section .text.__malloc_lock:

00001824 <__malloc_lock>:
    1824:	ret

Disassembly of section .text.__malloc_unlock:

00001828 <__malloc_unlock>:
    1828:	ret

Disassembly of section .text._fclose_r:

0000182c <_fclose_r>:
    182c:	add	sp,sp,-16
    1830:	sw	ra,12(sp)
    1834:	sw	s2,0(sp)
    1838:	beqz	a1,1868 <_fclose_r+0x3c>
    183c:	sw	s0,8(sp)
    1840:	sw	s1,4(sp)
    1844:	mv	s0,a1
    1848:	mv	s1,a0
    184c:	beqz	a0,1858 <_fclose_r+0x2c>
    1850:	lw	a5,52(a0)
    1854:	beqz	a5,192c <_fclose_r+0x100>
    1858:	lh	a5,12(s0)
    185c:	bnez	a5,1880 <_fclose_r+0x54>
    1860:	lw	s0,8(sp)
    1864:	lw	s1,4(sp)
    1868:	lw	ra,12(sp)
    186c:	li	s2,0
    1870:	mv	a0,s2
    1874:	lw	s2,0(sp)
    1878:	add	sp,sp,16
    187c:	ret
    1880:	mv	a1,s0
    1884:	mv	a0,s1
    1888:	jal	1944 <__sflush_r>
    188c:	lw	a5,44(s0)
    1890:	mv	s2,a0
    1894:	beqz	a5,18a8 <_fclose_r+0x7c>
    1898:	lw	a1,28(s0)
    189c:	mv	a0,s1
    18a0:	jalr	a5
    18a4:	bltz	a0,190c <_fclose_r+0xe0>
    18a8:	lhu	a5,12(s0)
    18ac:	and	a5,a5,128
    18b0:	bnez	a5,191c <_fclose_r+0xf0>
    18b4:	lw	a1,48(s0)
    18b8:	beqz	a1,18d0 <_fclose_r+0xa4>
    18bc:	add	a5,s0,64
    18c0:	beq	a1,a5,18cc <_fclose_r+0xa0>
    18c4:	mv	a0,s1
    18c8:	jal	d44 <_free_r>
    18cc:	sw	zero,48(s0)
    18d0:	lw	a1,68(s0)
    18d4:	beqz	a1,18e4 <_fclose_r+0xb8>
    18d8:	mv	a0,s1
    18dc:	jal	d44 <_free_r>
    18e0:	sw	zero,68(s0)
    18e4:	jal	554 <__sfp_lock_acquire>
    18e8:	sh	zero,12(s0)
    18ec:	jal	558 <__sfp_lock_release>
    18f0:	lw	ra,12(sp)
    18f4:	lw	s0,8(sp)
    18f8:	lw	s1,4(sp)
    18fc:	mv	a0,s2
    1900:	lw	s2,0(sp)
    1904:	add	sp,sp,16
    1908:	ret
    190c:	lhu	a5,12(s0)
    1910:	li	s2,-1
    1914:	and	a5,a5,128
    1918:	beqz	a5,18b4 <_fclose_r+0x88>
    191c:	lw	a1,16(s0)
    1920:	mv	a0,s1
    1924:	jal	d44 <_free_r>
    1928:	j	18b4 <_fclose_r+0x88>
    192c:	jal	530 <__sinit>
    1930:	j	1858 <_fclose_r+0x2c>

Disassembly of section .text.fclose:

00001934 <fclose>:
    1934:	lui	a5,0x2
    1938:	mv	a1,a0
    193c:	lw	a0,1252(a5) # 24e4 <_impure_ptr>
    1940:	j	182c <_fclose_r>

Disassembly of section .text.__sflush_r:

00001944 <__sflush_r>:
    1944:	lh	a4,12(a1)
    1948:	add	sp,sp,-32
    194c:	sw	s0,24(sp)
    1950:	sw	s3,12(sp)
    1954:	sw	ra,28(sp)
    1958:	and	a5,a4,8
    195c:	mv	s0,a1
    1960:	mv	s3,a0
    1964:	bnez	a5,1a84 <__sflush_r+0x140>
    1968:	lui	a5,0x1
    196c:	add	a5,a5,-2048 # 800 <_close_r+0x5c>
    1970:	lw	a3,4(a1)
    1974:	or	a5,a4,a5
    1978:	sh	a5,12(a1)
    197c:	blez	a3,1b00 <__sflush_r+0x1bc>
    1980:	lw	a6,40(s0)
    1984:	beqz	a6,1a6c <__sflush_r+0x128>
    1988:	sw	s1,20(sp)
    198c:	sll	a3,a4,0x13
    1990:	lw	s1,0(s3)
    1994:	sw	zero,0(s3)
    1998:	lw	a1,28(s0)
    199c:	bltz	a3,1b18 <__sflush_r+0x1d4>
    19a0:	li	a2,0
    19a4:	li	a3,1
    19a8:	mv	a0,s3
    19ac:	jalr	a6
    19b0:	li	a5,-1
    19b4:	mv	a2,a0
    19b8:	beq	a0,a5,1b60 <__sflush_r+0x21c>
    19bc:	lh	a5,12(s0)
    19c0:	lw	a6,40(s0)
    19c4:	lw	a1,28(s0)
    19c8:	and	a5,a5,4
    19cc:	beqz	a5,19e8 <__sflush_r+0xa4>
    19d0:	lw	a4,4(s0)
    19d4:	lw	a5,48(s0)
    19d8:	sub	a2,a2,a4
    19dc:	beqz	a5,19e8 <__sflush_r+0xa4>
    19e0:	lw	a5,60(s0)
    19e4:	sub	a2,a2,a5
    19e8:	li	a3,0
    19ec:	mv	a0,s3
    19f0:	jalr	a6
    19f4:	li	a5,-1
    19f8:	bne	a0,a5,1b20 <__sflush_r+0x1dc>
    19fc:	lw	a3,0(s3)
    1a00:	li	a5,29
    1a04:	lh	a4,12(s0)
    1a08:	bltu	a5,a3,1b7c <__sflush_r+0x238>
    1a0c:	lui	a5,0x20400
    1a10:	add	a5,a5,1 # 20400001 <__sp+0x203f0001>
    1a14:	srl	a5,a5,a3
    1a18:	and	a5,a5,1
    1a1c:	beqz	a5,1b7c <__sflush_r+0x238>
    1a20:	lw	a2,16(s0)
    1a24:	lui	a5,0xfffff
    1a28:	add	a5,a5,2047 # fffff7ff <__sp+0xfffef7ff>
    1a2c:	and	a5,a4,a5
    1a30:	sh	a5,12(s0)
    1a34:	sw	zero,4(s0)
    1a38:	sw	a2,0(s0)
    1a3c:	sll	a5,a4,0x13
    1a40:	bgez	a5,1a48 <__sflush_r+0x104>
    1a44:	beqz	a3,1b48 <__sflush_r+0x204>
    1a48:	lw	a1,48(s0)
    1a4c:	sw	s1,0(s3)
    1a50:	beqz	a1,1b58 <__sflush_r+0x214>
    1a54:	add	a5,s0,64
    1a58:	beq	a1,a5,1a64 <__sflush_r+0x120>
    1a5c:	mv	a0,s3
    1a60:	jal	d44 <_free_r>
    1a64:	lw	s1,20(sp)
    1a68:	sw	zero,48(s0)
    1a6c:	li	a0,0
    1a70:	lw	ra,28(sp)
    1a74:	lw	s0,24(sp)
    1a78:	lw	s3,12(sp)
    1a7c:	add	sp,sp,32
    1a80:	ret
    1a84:	sw	s2,16(sp)
    1a88:	lw	s2,16(a1)
    1a8c:	beqz	s2,1b10 <__sflush_r+0x1cc>
    1a90:	sw	s1,20(sp)
    1a94:	lw	s1,0(a1)
    1a98:	and	a4,a4,3
    1a9c:	sw	s2,0(a1)
    1aa0:	sub	s1,s1,s2
    1aa4:	li	a5,0
    1aa8:	bnez	a4,1ab0 <__sflush_r+0x16c>
    1aac:	lw	a5,20(a1)
    1ab0:	sw	a5,8(s0)
    1ab4:	bgtz	s1,1ac4 <__sflush_r+0x180>
    1ab8:	j	1b0c <__sflush_r+0x1c8>
    1abc:	add	s2,s2,a0
    1ac0:	blez	s1,1b0c <__sflush_r+0x1c8>
    1ac4:	lw	a5,36(s0)
    1ac8:	lw	a1,28(s0)
    1acc:	mv	a3,s1
    1ad0:	mv	a2,s2
    1ad4:	mv	a0,s3
    1ad8:	jalr	a5
    1adc:	sub	s1,s1,a0
    1ae0:	bgtz	a0,1abc <__sflush_r+0x178>
    1ae4:	lh	a4,12(s0)
    1ae8:	lw	s2,16(sp)
    1aec:	or	a4,a4,64
    1af0:	lw	s1,20(sp)
    1af4:	sh	a4,12(s0)
    1af8:	li	a0,-1
    1afc:	j	1a70 <__sflush_r+0x12c>
    1b00:	lw	a3,60(a1)
    1b04:	bgtz	a3,1980 <__sflush_r+0x3c>
    1b08:	j	1a6c <__sflush_r+0x128>
    1b0c:	lw	s1,20(sp)
    1b10:	lw	s2,16(sp)
    1b14:	j	1a6c <__sflush_r+0x128>
    1b18:	lw	a2,80(s0)
    1b1c:	j	19c8 <__sflush_r+0x84>
    1b20:	lh	a4,12(s0)
    1b24:	lw	a3,16(s0)
    1b28:	lui	a5,0xfffff
    1b2c:	add	a5,a5,2047 # fffff7ff <__sp+0xfffef7ff>
    1b30:	and	a5,a4,a5
    1b34:	sh	a5,12(s0)
    1b38:	sw	zero,4(s0)
    1b3c:	sw	a3,0(s0)
    1b40:	sll	a5,a4,0x13
    1b44:	bgez	a5,1a48 <__sflush_r+0x104>
    1b48:	lw	a1,48(s0)
    1b4c:	sw	a0,80(s0)
    1b50:	sw	s1,0(s3)
    1b54:	bnez	a1,1a54 <__sflush_r+0x110>
    1b58:	lw	s1,20(sp)
    1b5c:	j	1a6c <__sflush_r+0x128>
    1b60:	lw	a5,0(s3)
    1b64:	beqz	a5,19bc <__sflush_r+0x78>
    1b68:	li	a4,29
    1b6c:	beq	a5,a4,1b84 <__sflush_r+0x240>
    1b70:	li	a4,22
    1b74:	beq	a5,a4,1b84 <__sflush_r+0x240>
    1b78:	lh	a4,12(s0)
    1b7c:	or	a4,a4,64
    1b80:	j	1af0 <__sflush_r+0x1ac>
    1b84:	sw	s1,0(s3)
    1b88:	lw	s1,20(sp)
    1b8c:	j	1a6c <__sflush_r+0x128>

Disassembly of section .text._fflush_r:

00001b90 <_fflush_r>:
    1b90:	add	sp,sp,-32
    1b94:	sw	s0,24(sp)
    1b98:	sw	ra,28(sp)
    1b9c:	mv	s0,a0
    1ba0:	beqz	a0,1bac <_fflush_r+0x1c>
    1ba4:	lw	a5,52(a0)
    1ba8:	beqz	a5,1bdc <_fflush_r+0x4c>
    1bac:	lh	a5,12(a1)
    1bb0:	bnez	a5,1bc8 <_fflush_r+0x38>
    1bb4:	lw	ra,28(sp)
    1bb8:	lw	s0,24(sp)
    1bbc:	li	a0,0
    1bc0:	add	sp,sp,32
    1bc4:	ret
    1bc8:	mv	a0,s0
    1bcc:	lw	s0,24(sp)
    1bd0:	lw	ra,28(sp)
    1bd4:	add	sp,sp,32
    1bd8:	j	1944 <__sflush_r>
    1bdc:	sw	a1,12(sp)
    1be0:	jal	530 <__sinit>
    1be4:	lw	a1,12(sp)
    1be8:	j	1bac <_fflush_r+0x1c>

Disassembly of section .text.fflush:

00001bec <fflush>:
    1bec:	beqz	a0,1c50 <fflush+0x64>
    1bf0:	lui	a5,0x2
    1bf4:	mv	a1,a0
    1bf8:	lw	a0,1252(a5) # 24e4 <_impure_ptr>
    1bfc:	beqz	a0,1c08 <fflush+0x1c>
    1c00:	lw	a5,52(a0)
    1c04:	beqz	a5,1c1c <fflush+0x30>
    1c08:	lh	a5,12(a1)
    1c0c:	bnez	a5,1c18 <fflush+0x2c>
    1c10:	li	a0,0
    1c14:	ret
    1c18:	j	1944 <__sflush_r>
    1c1c:	add	sp,sp,-32
    1c20:	sw	a1,12(sp)
    1c24:	sw	a0,8(sp)
    1c28:	sw	ra,28(sp)
    1c2c:	jal	530 <__sinit>
    1c30:	lw	a1,12(sp)
    1c34:	lw	a0,8(sp)
    1c38:	lh	a5,12(a1)
    1c3c:	bnez	a5,1c6c <fflush+0x80>
    1c40:	lw	ra,28(sp)
    1c44:	li	a0,0
    1c48:	add	sp,sp,32
    1c4c:	ret
    1c50:	lui	a2,0x2
    1c54:	lui	a1,0x2
    1c58:	lui	a0,0x2
    1c5c:	add	a2,a2,-104 # 1f98 <__sglue>
    1c60:	add	a1,a1,-1136 # 1b90 <_fflush_r>
    1c64:	add	a0,a0,-88 # 1fa8 <_impure_data>
    1c68:	j	584 <_fwalk_sglue>
    1c6c:	lw	ra,28(sp)
    1c70:	add	sp,sp,32
    1c74:	j	1944 <__sflush_r>

Disassembly of section .text._sbrk_r:

00001c78 <_sbrk_r>:
    1c78:	add	sp,sp,-16
    1c7c:	sw	s0,8(sp)
    1c80:	sw	s1,4(sp)
    1c84:	mv	s0,a0
    1c88:	lui	s1,0x2
    1c8c:	mv	a0,a1
    1c90:	sw	ra,12(sp)
    1c94:	sw	zero,1612(s1) # 264c <errno>
    1c98:	jal	1ec8 <_sbrk>
    1c9c:	li	a5,-1
    1ca0:	beq	a0,a5,1cb8 <_sbrk_r+0x40>
    1ca4:	lw	ra,12(sp)
    1ca8:	lw	s0,8(sp)
    1cac:	lw	s1,4(sp)
    1cb0:	add	sp,sp,16
    1cb4:	ret
    1cb8:	lw	a5,1612(s1)
    1cbc:	beqz	a5,1ca4 <_sbrk_r+0x2c>
    1cc0:	lw	ra,12(sp)
    1cc4:	sw	a5,0(s0)
    1cc8:	lw	s0,8(sp)
    1ccc:	lw	s1,4(sp)
    1cd0:	add	sp,sp,16
    1cd4:	ret

Disassembly of section .text.__libc_fini_array:

00001cd8 <__libc_fini_array>:
    1cd8:	add	sp,sp,-16
    1cdc:	sw	s0,8(sp)
    1ce0:	li	a5,0
    1ce4:	li	s0,0
    1ce8:	sub	s0,s0,a5
    1cec:	sw	s1,4(sp)
    1cf0:	sw	ra,12(sp)
    1cf4:	sra	s1,s0,0x2
    1cf8:	beqz	s1,1d18 <__libc_fini_array+0x40>
    1cfc:	add	s0,s0,-4
    1d00:	add	s0,s0,a5
    1d04:	lw	a5,0(s0)
    1d08:	add	s1,s1,-1
    1d0c:	add	s0,s0,-4
    1d10:	jalr	a5
    1d14:	bnez	s1,1d04 <__libc_fini_array+0x2c>
    1d18:	lw	ra,12(sp)
    1d1c:	lw	s0,8(sp)
    1d20:	lw	s1,4(sp)
    1d24:	add	sp,sp,16
    1d28:	ret

Disassembly of section .text.__register_exitproc:

00001d2c <__register_exitproc>:
    1d2c:	lui	a4,0x2
    1d30:	lw	a5,1616(a4) # 2650 <__atexit>
    1d34:	beqz	a5,1d8c <__register_exitproc+0x60>
    1d38:	lw	a4,4(a5)
    1d3c:	li	a6,31
    1d40:	blt	a6,a4,1dc4 <__register_exitproc+0x98>
    1d44:	sll	a6,a4,0x2
    1d48:	beqz	a0,1d74 <__register_exitproc+0x48>
    1d4c:	add	t1,a5,a6
    1d50:	sw	a2,136(t1)
    1d54:	lw	a7,392(a5)
    1d58:	li	a2,1
    1d5c:	sll	a2,a2,a4
    1d60:	or	a7,a7,a2
    1d64:	sw	a7,392(a5)
    1d68:	sw	a3,264(t1)
    1d6c:	li	a3,2
    1d70:	beq	a0,a3,1da0 <__register_exitproc+0x74>
    1d74:	add	a4,a4,1
    1d78:	sw	a4,4(a5)
    1d7c:	add	a5,a5,a6
    1d80:	sw	a1,8(a5)
    1d84:	li	a0,0
    1d88:	ret
    1d8c:	lui	a5,0x2
    1d90:	add	a6,a5,1672 # 2688 <__atexit0>
    1d94:	sw	a6,1616(a4)
    1d98:	add	a5,a5,1672
    1d9c:	j	1d38 <__register_exitproc+0xc>
    1da0:	lw	a3,396(a5)
    1da4:	add	a4,a4,1
    1da8:	sw	a4,4(a5)
    1dac:	or	a3,a3,a2
    1db0:	sw	a3,396(a5)
    1db4:	add	a5,a5,a6
    1db8:	sw	a1,8(a5)
    1dbc:	li	a0,0
    1dc0:	ret
    1dc4:	li	a0,-1
    1dc8:	ret

Disassembly of section .text._close:

00001dcc <_close>:
    1dcc:	add	sp,sp,-16
    1dd0:	sw	ra,12(sp)
    1dd4:	sw	s0,8(sp)
    1dd8:	li	a7,57
    1ddc:	ecall
    1de0:	mv	s0,a0
    1de4:	bltz	a0,1dfc <_close+0x30>
    1de8:	lw	ra,12(sp)
    1dec:	mv	a0,s0
    1df0:	lw	s0,8(sp)
    1df4:	add	sp,sp,16
    1df8:	ret
    1dfc:	neg	s0,s0
    1e00:	jal	1f88 <__errno>
    1e04:	sw	s0,0(a0)
    1e08:	li	s0,-1
    1e0c:	j	1de8 <_close+0x1c>

Disassembly of section .text._exit:

00001e10 <_exit>:
    1e10:	li	a7,93
    1e14:	ecall
    1e18:	bltz	a0,1e20 <_exit+0x10>
    1e1c:	j	1e1c <_exit+0xc>
    1e20:	add	sp,sp,-16
    1e24:	sw	s0,8(sp)
    1e28:	mv	s0,a0
    1e2c:	sw	ra,12(sp)
    1e30:	neg	s0,s0
    1e34:	jal	1f88 <__errno>
    1e38:	sw	s0,0(a0)
    1e3c:	j	1e3c <_exit+0x2c>

Disassembly of section .text._lseek:

00001e40 <_lseek>:
    1e40:	add	sp,sp,-16
    1e44:	sw	ra,12(sp)
    1e48:	sw	s0,8(sp)
    1e4c:	li	a7,62
    1e50:	ecall
    1e54:	mv	s0,a0
    1e58:	bltz	a0,1e70 <_lseek+0x30>
    1e5c:	lw	ra,12(sp)
    1e60:	mv	a0,s0
    1e64:	lw	s0,8(sp)
    1e68:	add	sp,sp,16
    1e6c:	ret
    1e70:	neg	s0,s0
    1e74:	jal	1f88 <__errno>
    1e78:	sw	s0,0(a0)
    1e7c:	li	s0,-1
    1e80:	j	1e5c <_lseek+0x1c>

Disassembly of section .text._read:

00001e84 <_read>:
    1e84:	add	sp,sp,-16
    1e88:	sw	ra,12(sp)
    1e8c:	sw	s0,8(sp)
    1e90:	li	a7,63
    1e94:	ecall
    1e98:	mv	s0,a0
    1e9c:	bltz	a0,1eb4 <_read+0x30>
    1ea0:	lw	ra,12(sp)
    1ea4:	mv	a0,s0
    1ea8:	lw	s0,8(sp)
    1eac:	add	sp,sp,16
    1eb0:	ret
    1eb4:	neg	s0,s0
    1eb8:	jal	1f88 <__errno>
    1ebc:	sw	s0,0(a0)
    1ec0:	li	s0,-1
    1ec4:	j	1ea0 <_read+0x1c>

Disassembly of section .text._sbrk:

00001ec8 <_sbrk>:
    1ec8:	lui	a3,0x3
    1ecc:	lw	a4,-2024(a3) # 2818 <heap_end.0>
    1ed0:	add	sp,sp,-16
    1ed4:	sw	ra,12(sp)
    1ed8:	mv	a5,a0
    1edc:	bnez	a4,1efc <_sbrk+0x34>
    1ee0:	li	a7,214
    1ee4:	li	a0,0
    1ee8:	ecall
    1eec:	li	a2,-1
    1ef0:	mv	a4,a0
    1ef4:	beq	a0,a2,1f28 <_sbrk+0x60>
    1ef8:	sw	a0,-2024(a3)
    1efc:	li	a7,214
    1f00:	add	a0,a5,a4
    1f04:	ecall
    1f08:	lw	a4,-2024(a3)
    1f0c:	add	a5,a5,a4
    1f10:	bne	a0,a5,1f28 <_sbrk+0x60>
    1f14:	lw	ra,12(sp)
    1f18:	sw	a0,-2024(a3)
    1f1c:	mv	a0,a4
    1f20:	add	sp,sp,16
    1f24:	ret
    1f28:	jal	1f88 <__errno>
    1f2c:	lw	ra,12(sp)
    1f30:	li	a5,12
    1f34:	sw	a5,0(a0)
    1f38:	li	a0,-1
    1f3c:	add	sp,sp,16
    1f40:	ret

Disassembly of section .text._write:

00001f44 <_write>:
    1f44:	add	sp,sp,-16
    1f48:	sw	ra,12(sp)
    1f4c:	sw	s0,8(sp)
    1f50:	li	a7,64
    1f54:	ecall
    1f58:	mv	s0,a0
    1f5c:	bltz	a0,1f74 <_write+0x30>
    1f60:	lw	ra,12(sp)
    1f64:	mv	a0,s0
    1f68:	lw	s0,8(sp)
    1f6c:	add	sp,sp,16
    1f70:	ret
    1f74:	neg	s0,s0
    1f78:	jal	1f88 <__errno>
    1f7c:	sw	s0,0(a0)
    1f80:	li	s0,-1
    1f84:	j	1f60 <_write+0x1c>

Disassembly of section .text.__errno:

00001f88 <__errno>:
    1f88:	lui	a5,0x2
    1f8c:	lw	a0,1252(a5) # 24e4 <_impure_ptr>
    1f90:	ret
